
;CodeVisionAVR C Compiler V3.12 Advanced
;(C) Copyright 1998-2014 Pavel Haiduc, HP InfoTech s.r.l.
;http://www.hpinfotech.com

;Build configuration    : Release
;Chip type              : ATmega328P
;Program type           : Application
;Clock frequency        : 8,000000 MHz
;Memory model           : Small
;Optimize for           : Size
;(s)printf features     : int, width
;(s)scanf features      : int, width
;External RAM size      : 0
;Data Stack size        : 512 byte(s)
;Heap size              : 0 byte(s)
;Promote 'char' to 'int': Yes
;'char' is unsigned     : Yes
;8 bit enums            : Yes
;Global 'const' stored in FLASH: Yes
;Enhanced function parameter passing: Yes
;Enhanced core instructions: On
;Automatic register allocation for global variables: On
;Smart register allocation: On

	#define _MODEL_SMALL_

	#pragma AVRPART ADMIN PART_NAME ATmega328P
	#pragma AVRPART MEMORY PROG_FLASH 32768
	#pragma AVRPART MEMORY EEPROM 1024
	#pragma AVRPART MEMORY INT_SRAM SIZE 2048
	#pragma AVRPART MEMORY INT_SRAM START_ADDR 0x100

	#define CALL_SUPPORTED 1

	.LISTMAC
	.EQU EERE=0x0
	.EQU EEWE=0x1
	.EQU EEMWE=0x2
	.EQU UDRE=0x5
	.EQU RXC=0x7
	.EQU EECR=0x1F
	.EQU EEDR=0x20
	.EQU EEARL=0x21
	.EQU EEARH=0x22
	.EQU SPSR=0x2D
	.EQU SPDR=0x2E
	.EQU SMCR=0x33
	.EQU MCUSR=0x34
	.EQU MCUCR=0x35
	.EQU WDTCSR=0x60
	.EQU UCSR0A=0xC0
	.EQU UDR0=0xC6
	.EQU SPL=0x3D
	.EQU SPH=0x3E
	.EQU SREG=0x3F
	.EQU GPIOR0=0x1E

	.DEF R0X0=R0
	.DEF R0X1=R1
	.DEF R0X2=R2
	.DEF R0X3=R3
	.DEF R0X4=R4
	.DEF R0X5=R5
	.DEF R0X6=R6
	.DEF R0X7=R7
	.DEF R0X8=R8
	.DEF R0X9=R9
	.DEF R0XA=R10
	.DEF R0XB=R11
	.DEF R0XC=R12
	.DEF R0XD=R13
	.DEF R0XE=R14
	.DEF R0XF=R15
	.DEF R0X10=R16
	.DEF R0X11=R17
	.DEF R0X12=R18
	.DEF R0X13=R19
	.DEF R0X14=R20
	.DEF R0X15=R21
	.DEF R0X16=R22
	.DEF R0X17=R23
	.DEF R0X18=R24
	.DEF R0X19=R25
	.DEF R0X1A=R26
	.DEF R0X1B=R27
	.DEF R0X1C=R28
	.DEF R0X1D=R29
	.DEF R0X1E=R30
	.DEF R0X1F=R31

	.EQU __SRAM_START=0x0100
	.EQU __SRAM_END=0x08FF
	.EQU __DSTACK_SIZE=0x0200
	.EQU __HEAP_SIZE=0x0000
	.EQU __CLEAR_SRAM_SIZE=__SRAM_END-__SRAM_START+1

	.MACRO __CPD1N
	CPI  R30,LOW(@0)
	LDI  R26,HIGH(@0)
	CPC  R31,R26
	LDI  R26,BYTE3(@0)
	CPC  R22,R26
	LDI  R26,BYTE4(@0)
	CPC  R23,R26
	.ENDM

	.MACRO __CPD2N
	CPI  R26,LOW(@0)
	LDI  R30,HIGH(@0)
	CPC  R27,R30
	LDI  R30,BYTE3(@0)
	CPC  R24,R30
	LDI  R30,BYTE4(@0)
	CPC  R25,R30
	.ENDM

	.MACRO __CPWRR
	CP   R@0,R@2
	CPC  R@1,R@3
	.ENDM

	.MACRO __CPWRN
	CPI  R@0,LOW(@2)
	LDI  R30,HIGH(@2)
	CPC  R@1,R30
	.ENDM

	.MACRO __ADDB1MN
	SUBI R30,LOW(-@0-(@1))
	.ENDM

	.MACRO __ADDB2MN
	SUBI R26,LOW(-@0-(@1))
	.ENDM

	.MACRO __ADDW1MN
	SUBI R30,LOW(-@0-(@1))
	SBCI R31,HIGH(-@0-(@1))
	.ENDM

	.MACRO __ADDW2MN
	SUBI R26,LOW(-@0-(@1))
	SBCI R27,HIGH(-@0-(@1))
	.ENDM

	.MACRO __ADDW1FN
	SUBI R30,LOW(-2*@0-(@1))
	SBCI R31,HIGH(-2*@0-(@1))
	.ENDM

	.MACRO __ADDD1FN
	SUBI R30,LOW(-2*@0-(@1))
	SBCI R31,HIGH(-2*@0-(@1))
	SBCI R22,BYTE3(-2*@0-(@1))
	.ENDM

	.MACRO __ADDD1N
	SUBI R30,LOW(-@0)
	SBCI R31,HIGH(-@0)
	SBCI R22,BYTE3(-@0)
	SBCI R23,BYTE4(-@0)
	.ENDM

	.MACRO __ADDD2N
	SUBI R26,LOW(-@0)
	SBCI R27,HIGH(-@0)
	SBCI R24,BYTE3(-@0)
	SBCI R25,BYTE4(-@0)
	.ENDM

	.MACRO __SUBD1N
	SUBI R30,LOW(@0)
	SBCI R31,HIGH(@0)
	SBCI R22,BYTE3(@0)
	SBCI R23,BYTE4(@0)
	.ENDM

	.MACRO __SUBD2N
	SUBI R26,LOW(@0)
	SBCI R27,HIGH(@0)
	SBCI R24,BYTE3(@0)
	SBCI R25,BYTE4(@0)
	.ENDM

	.MACRO __ANDBMNN
	LDS  R30,@0+(@1)
	ANDI R30,LOW(@2)
	STS  @0+(@1),R30
	.ENDM

	.MACRO __ANDWMNN
	LDS  R30,@0+(@1)
	ANDI R30,LOW(@2)
	STS  @0+(@1),R30
	LDS  R30,@0+(@1)+1
	ANDI R30,HIGH(@2)
	STS  @0+(@1)+1,R30
	.ENDM

	.MACRO __ANDD1N
	ANDI R30,LOW(@0)
	ANDI R31,HIGH(@0)
	ANDI R22,BYTE3(@0)
	ANDI R23,BYTE4(@0)
	.ENDM

	.MACRO __ANDD2N
	ANDI R26,LOW(@0)
	ANDI R27,HIGH(@0)
	ANDI R24,BYTE3(@0)
	ANDI R25,BYTE4(@0)
	.ENDM

	.MACRO __ORBMNN
	LDS  R30,@0+(@1)
	ORI  R30,LOW(@2)
	STS  @0+(@1),R30
	.ENDM

	.MACRO __ORWMNN
	LDS  R30,@0+(@1)
	ORI  R30,LOW(@2)
	STS  @0+(@1),R30
	LDS  R30,@0+(@1)+1
	ORI  R30,HIGH(@2)
	STS  @0+(@1)+1,R30
	.ENDM

	.MACRO __ORD1N
	ORI  R30,LOW(@0)
	ORI  R31,HIGH(@0)
	ORI  R22,BYTE3(@0)
	ORI  R23,BYTE4(@0)
	.ENDM

	.MACRO __ORD2N
	ORI  R26,LOW(@0)
	ORI  R27,HIGH(@0)
	ORI  R24,BYTE3(@0)
	ORI  R25,BYTE4(@0)
	.ENDM

	.MACRO __DELAY_USB
	LDI  R24,LOW(@0)
__DELAY_USB_LOOP:
	DEC  R24
	BRNE __DELAY_USB_LOOP
	.ENDM

	.MACRO __DELAY_USW
	LDI  R24,LOW(@0)
	LDI  R25,HIGH(@0)
__DELAY_USW_LOOP:
	SBIW R24,1
	BRNE __DELAY_USW_LOOP
	.ENDM

	.MACRO __GETD1S
	LDD  R30,Y+@0
	LDD  R31,Y+@0+1
	LDD  R22,Y+@0+2
	LDD  R23,Y+@0+3
	.ENDM

	.MACRO __GETD2S
	LDD  R26,Y+@0
	LDD  R27,Y+@0+1
	LDD  R24,Y+@0+2
	LDD  R25,Y+@0+3
	.ENDM

	.MACRO __PUTD1S
	STD  Y+@0,R30
	STD  Y+@0+1,R31
	STD  Y+@0+2,R22
	STD  Y+@0+3,R23
	.ENDM

	.MACRO __PUTD2S
	STD  Y+@0,R26
	STD  Y+@0+1,R27
	STD  Y+@0+2,R24
	STD  Y+@0+3,R25
	.ENDM

	.MACRO __PUTDZ2
	STD  Z+@0,R26
	STD  Z+@0+1,R27
	STD  Z+@0+2,R24
	STD  Z+@0+3,R25
	.ENDM

	.MACRO __CLRD1S
	STD  Y+@0,R30
	STD  Y+@0+1,R30
	STD  Y+@0+2,R30
	STD  Y+@0+3,R30
	.ENDM

	.MACRO __POINTB1MN
	LDI  R30,LOW(@0+(@1))
	.ENDM

	.MACRO __POINTW1MN
	LDI  R30,LOW(@0+(@1))
	LDI  R31,HIGH(@0+(@1))
	.ENDM

	.MACRO __POINTD1M
	LDI  R30,LOW(@0)
	LDI  R31,HIGH(@0)
	LDI  R22,BYTE3(@0)
	LDI  R23,BYTE4(@0)
	.ENDM

	.MACRO __POINTW1FN
	LDI  R30,LOW(2*@0+(@1))
	LDI  R31,HIGH(2*@0+(@1))
	.ENDM

	.MACRO __POINTD1FN
	LDI  R30,LOW(2*@0+(@1))
	LDI  R31,HIGH(2*@0+(@1))
	LDI  R22,BYTE3(2*@0+(@1))
	LDI  R23,BYTE4(2*@0+(@1))
	.ENDM

	.MACRO __POINTB2MN
	LDI  R26,LOW(@0+(@1))
	.ENDM

	.MACRO __POINTW2MN
	LDI  R26,LOW(@0+(@1))
	LDI  R27,HIGH(@0+(@1))
	.ENDM

	.MACRO __POINTW2FN
	LDI  R26,LOW(2*@0+(@1))
	LDI  R27,HIGH(2*@0+(@1))
	.ENDM

	.MACRO __POINTD2FN
	LDI  R26,LOW(2*@0+(@1))
	LDI  R27,HIGH(2*@0+(@1))
	LDI  R24,BYTE3(2*@0+(@1))
	LDI  R25,BYTE4(2*@0+(@1))
	.ENDM

	.MACRO __POINTBRM
	LDI  R@0,LOW(@1)
	.ENDM

	.MACRO __POINTWRM
	LDI  R@0,LOW(@2)
	LDI  R@1,HIGH(@2)
	.ENDM

	.MACRO __POINTBRMN
	LDI  R@0,LOW(@1+(@2))
	.ENDM

	.MACRO __POINTWRMN
	LDI  R@0,LOW(@2+(@3))
	LDI  R@1,HIGH(@2+(@3))
	.ENDM

	.MACRO __POINTWRFN
	LDI  R@0,LOW(@2*2+(@3))
	LDI  R@1,HIGH(@2*2+(@3))
	.ENDM

	.MACRO __GETD1N
	LDI  R30,LOW(@0)
	LDI  R31,HIGH(@0)
	LDI  R22,BYTE3(@0)
	LDI  R23,BYTE4(@0)
	.ENDM

	.MACRO __GETD2N
	LDI  R26,LOW(@0)
	LDI  R27,HIGH(@0)
	LDI  R24,BYTE3(@0)
	LDI  R25,BYTE4(@0)
	.ENDM

	.MACRO __GETB1MN
	LDS  R30,@0+(@1)
	.ENDM

	.MACRO __GETB1HMN
	LDS  R31,@0+(@1)
	.ENDM

	.MACRO __GETW1MN
	LDS  R30,@0+(@1)
	LDS  R31,@0+(@1)+1
	.ENDM

	.MACRO __GETD1MN
	LDS  R30,@0+(@1)
	LDS  R31,@0+(@1)+1
	LDS  R22,@0+(@1)+2
	LDS  R23,@0+(@1)+3
	.ENDM

	.MACRO __GETBRMN
	LDS  R@0,@1+(@2)
	.ENDM

	.MACRO __GETWRMN
	LDS  R@0,@2+(@3)
	LDS  R@1,@2+(@3)+1
	.ENDM

	.MACRO __GETWRZ
	LDD  R@0,Z+@2
	LDD  R@1,Z+@2+1
	.ENDM

	.MACRO __GETD2Z
	LDD  R26,Z+@0
	LDD  R27,Z+@0+1
	LDD  R24,Z+@0+2
	LDD  R25,Z+@0+3
	.ENDM

	.MACRO __GETB2MN
	LDS  R26,@0+(@1)
	.ENDM

	.MACRO __GETW2MN
	LDS  R26,@0+(@1)
	LDS  R27,@0+(@1)+1
	.ENDM

	.MACRO __GETD2MN
	LDS  R26,@0+(@1)
	LDS  R27,@0+(@1)+1
	LDS  R24,@0+(@1)+2
	LDS  R25,@0+(@1)+3
	.ENDM

	.MACRO __PUTB1MN
	STS  @0+(@1),R30
	.ENDM

	.MACRO __PUTW1MN
	STS  @0+(@1),R30
	STS  @0+(@1)+1,R31
	.ENDM

	.MACRO __PUTD1MN
	STS  @0+(@1),R30
	STS  @0+(@1)+1,R31
	STS  @0+(@1)+2,R22
	STS  @0+(@1)+3,R23
	.ENDM

	.MACRO __PUTB1EN
	LDI  R26,LOW(@0+(@1))
	LDI  R27,HIGH(@0+(@1))
	CALL __EEPROMWRB
	.ENDM

	.MACRO __PUTW1EN
	LDI  R26,LOW(@0+(@1))
	LDI  R27,HIGH(@0+(@1))
	CALL __EEPROMWRW
	.ENDM

	.MACRO __PUTD1EN
	LDI  R26,LOW(@0+(@1))
	LDI  R27,HIGH(@0+(@1))
	CALL __EEPROMWRD
	.ENDM

	.MACRO __PUTBR0MN
	STS  @0+(@1),R0
	.ENDM

	.MACRO __PUTBMRN
	STS  @0+(@1),R@2
	.ENDM

	.MACRO __PUTWMRN
	STS  @0+(@1),R@2
	STS  @0+(@1)+1,R@3
	.ENDM

	.MACRO __PUTBZR
	STD  Z+@1,R@0
	.ENDM

	.MACRO __PUTWZR
	STD  Z+@2,R@0
	STD  Z+@2+1,R@1
	.ENDM

	.MACRO __GETW1R
	MOV  R30,R@0
	MOV  R31,R@1
	.ENDM

	.MACRO __GETW2R
	MOV  R26,R@0
	MOV  R27,R@1
	.ENDM

	.MACRO __GETWRN
	LDI  R@0,LOW(@2)
	LDI  R@1,HIGH(@2)
	.ENDM

	.MACRO __PUTW1R
	MOV  R@0,R30
	MOV  R@1,R31
	.ENDM

	.MACRO __PUTW2R
	MOV  R@0,R26
	MOV  R@1,R27
	.ENDM

	.MACRO __ADDWRN
	SUBI R@0,LOW(-@2)
	SBCI R@1,HIGH(-@2)
	.ENDM

	.MACRO __ADDWRR
	ADD  R@0,R@2
	ADC  R@1,R@3
	.ENDM

	.MACRO __SUBWRN
	SUBI R@0,LOW(@2)
	SBCI R@1,HIGH(@2)
	.ENDM

	.MACRO __SUBWRR
	SUB  R@0,R@2
	SBC  R@1,R@3
	.ENDM

	.MACRO __ANDWRN
	ANDI R@0,LOW(@2)
	ANDI R@1,HIGH(@2)
	.ENDM

	.MACRO __ANDWRR
	AND  R@0,R@2
	AND  R@1,R@3
	.ENDM

	.MACRO __ORWRN
	ORI  R@0,LOW(@2)
	ORI  R@1,HIGH(@2)
	.ENDM

	.MACRO __ORWRR
	OR   R@0,R@2
	OR   R@1,R@3
	.ENDM

	.MACRO __EORWRR
	EOR  R@0,R@2
	EOR  R@1,R@3
	.ENDM

	.MACRO __GETWRS
	LDD  R@0,Y+@2
	LDD  R@1,Y+@2+1
	.ENDM

	.MACRO __PUTBSR
	STD  Y+@1,R@0
	.ENDM

	.MACRO __PUTWSR
	STD  Y+@2,R@0
	STD  Y+@2+1,R@1
	.ENDM

	.MACRO __MOVEWRR
	MOV  R@0,R@2
	MOV  R@1,R@3
	.ENDM

	.MACRO __INWR
	IN   R@0,@2
	IN   R@1,@2+1
	.ENDM

	.MACRO __OUTWR
	OUT  @2+1,R@1
	OUT  @2,R@0
	.ENDM

	.MACRO __CALL1MN
	LDS  R30,@0+(@1)
	LDS  R31,@0+(@1)+1
	ICALL
	.ENDM

	.MACRO __CALL1FN
	LDI  R30,LOW(2*@0+(@1))
	LDI  R31,HIGH(2*@0+(@1))
	CALL __GETW1PF
	ICALL
	.ENDM

	.MACRO __CALL2EN
	PUSH R26
	PUSH R27
	LDI  R26,LOW(@0+(@1))
	LDI  R27,HIGH(@0+(@1))
	CALL __EEPROMRDW
	POP  R27
	POP  R26
	ICALL
	.ENDM

	.MACRO __CALL2EX
	SUBI R26,LOW(-@0)
	SBCI R27,HIGH(-@0)
	CALL __EEPROMRDD
	ICALL
	.ENDM

	.MACRO __GETW1STACK
	IN   R30,SPL
	IN   R31,SPH
	ADIW R30,@0+1
	LD   R0,Z+
	LD   R31,Z
	MOV  R30,R0
	.ENDM

	.MACRO __GETD1STACK
	IN   R30,SPL
	IN   R31,SPH
	ADIW R30,@0+1
	LD   R0,Z+
	LD   R1,Z+
	LD   R22,Z
	MOVW R30,R0
	.ENDM

	.MACRO __NBST
	BST  R@0,@1
	IN   R30,SREG
	LDI  R31,0x40
	EOR  R30,R31
	OUT  SREG,R30
	.ENDM


	.MACRO __PUTB1SN
	LDD  R26,Y+@0
	LDD  R27,Y+@0+1
	SUBI R26,LOW(-@1)
	SBCI R27,HIGH(-@1)
	ST   X,R30
	.ENDM

	.MACRO __PUTW1SN
	LDD  R26,Y+@0
	LDD  R27,Y+@0+1
	SUBI R26,LOW(-@1)
	SBCI R27,HIGH(-@1)
	ST   X+,R30
	ST   X,R31
	.ENDM

	.MACRO __PUTD1SN
	LDD  R26,Y+@0
	LDD  R27,Y+@0+1
	SUBI R26,LOW(-@1)
	SBCI R27,HIGH(-@1)
	CALL __PUTDP1
	.ENDM

	.MACRO __PUTB1SNS
	LDD  R26,Y+@0
	LDD  R27,Y+@0+1
	ADIW R26,@1
	ST   X,R30
	.ENDM

	.MACRO __PUTW1SNS
	LDD  R26,Y+@0
	LDD  R27,Y+@0+1
	ADIW R26,@1
	ST   X+,R30
	ST   X,R31
	.ENDM

	.MACRO __PUTD1SNS
	LDD  R26,Y+@0
	LDD  R27,Y+@0+1
	ADIW R26,@1
	CALL __PUTDP1
	.ENDM

	.MACRO __PUTB1PMN
	LDS  R26,@0
	LDS  R27,@0+1
	SUBI R26,LOW(-@1)
	SBCI R27,HIGH(-@1)
	ST   X,R30
	.ENDM

	.MACRO __PUTW1PMN
	LDS  R26,@0
	LDS  R27,@0+1
	SUBI R26,LOW(-@1)
	SBCI R27,HIGH(-@1)
	ST   X+,R30
	ST   X,R31
	.ENDM

	.MACRO __PUTD1PMN
	LDS  R26,@0
	LDS  R27,@0+1
	SUBI R26,LOW(-@1)
	SBCI R27,HIGH(-@1)
	CALL __PUTDP1
	.ENDM

	.MACRO __PUTB1PMNS
	LDS  R26,@0
	LDS  R27,@0+1
	ADIW R26,@1
	ST   X,R30
	.ENDM

	.MACRO __PUTW1PMNS
	LDS  R26,@0
	LDS  R27,@0+1
	ADIW R26,@1
	ST   X+,R30
	ST   X,R31
	.ENDM

	.MACRO __PUTD1PMNS
	LDS  R26,@0
	LDS  R27,@0+1
	ADIW R26,@1
	CALL __PUTDP1
	.ENDM

	.MACRO __PUTB1RN
	MOVW R26,R@0
	SUBI R26,LOW(-@1)
	SBCI R27,HIGH(-@1)
	ST   X,R30
	.ENDM

	.MACRO __PUTW1RN
	MOVW R26,R@0
	SUBI R26,LOW(-@1)
	SBCI R27,HIGH(-@1)
	ST   X+,R30
	ST   X,R31
	.ENDM

	.MACRO __PUTD1RN
	MOVW R26,R@0
	SUBI R26,LOW(-@1)
	SBCI R27,HIGH(-@1)
	CALL __PUTDP1
	.ENDM

	.MACRO __PUTB1RNS
	MOVW R26,R@0
	ADIW R26,@1
	ST   X,R30
	.ENDM

	.MACRO __PUTW1RNS
	MOVW R26,R@0
	ADIW R26,@1
	ST   X+,R30
	ST   X,R31
	.ENDM

	.MACRO __PUTD1RNS
	MOVW R26,R@0
	ADIW R26,@1
	CALL __PUTDP1
	.ENDM

	.MACRO __PUTB1RON
	MOV  R26,R@0
	MOV  R27,R@1
	SUBI R26,LOW(-@2)
	SBCI R27,HIGH(-@2)
	ST   X,R30
	.ENDM

	.MACRO __PUTW1RON
	MOV  R26,R@0
	MOV  R27,R@1
	SUBI R26,LOW(-@2)
	SBCI R27,HIGH(-@2)
	ST   X+,R30
	ST   X,R31
	.ENDM

	.MACRO __PUTD1RON
	MOV  R26,R@0
	MOV  R27,R@1
	SUBI R26,LOW(-@2)
	SBCI R27,HIGH(-@2)
	CALL __PUTDP1
	.ENDM

	.MACRO __PUTB1RONS
	MOV  R26,R@0
	MOV  R27,R@1
	ADIW R26,@2
	ST   X,R30
	.ENDM

	.MACRO __PUTW1RONS
	MOV  R26,R@0
	MOV  R27,R@1
	ADIW R26,@2
	ST   X+,R30
	ST   X,R31
	.ENDM

	.MACRO __PUTD1RONS
	MOV  R26,R@0
	MOV  R27,R@1
	ADIW R26,@2
	CALL __PUTDP1
	.ENDM


	.MACRO __GETB1SX
	MOVW R30,R28
	SUBI R30,LOW(-@0)
	SBCI R31,HIGH(-@0)
	LD   R30,Z
	.ENDM

	.MACRO __GETB1HSX
	MOVW R30,R28
	SUBI R30,LOW(-@0)
	SBCI R31,HIGH(-@0)
	LD   R31,Z
	.ENDM

	.MACRO __GETW1SX
	MOVW R30,R28
	SUBI R30,LOW(-@0)
	SBCI R31,HIGH(-@0)
	LD   R0,Z+
	LD   R31,Z
	MOV  R30,R0
	.ENDM

	.MACRO __GETD1SX
	MOVW R30,R28
	SUBI R30,LOW(-@0)
	SBCI R31,HIGH(-@0)
	LD   R0,Z+
	LD   R1,Z+
	LD   R22,Z+
	LD   R23,Z
	MOVW R30,R0
	.ENDM

	.MACRO __GETB2SX
	MOVW R26,R28
	SUBI R26,LOW(-@0)
	SBCI R27,HIGH(-@0)
	LD   R26,X
	.ENDM

	.MACRO __GETW2SX
	MOVW R26,R28
	SUBI R26,LOW(-@0)
	SBCI R27,HIGH(-@0)
	LD   R0,X+
	LD   R27,X
	MOV  R26,R0
	.ENDM

	.MACRO __GETD2SX
	MOVW R26,R28
	SUBI R26,LOW(-@0)
	SBCI R27,HIGH(-@0)
	LD   R0,X+
	LD   R1,X+
	LD   R24,X+
	LD   R25,X
	MOVW R26,R0
	.ENDM

	.MACRO __GETBRSX
	MOVW R30,R28
	SUBI R30,LOW(-@1)
	SBCI R31,HIGH(-@1)
	LD   R@0,Z
	.ENDM

	.MACRO __GETWRSX
	MOVW R30,R28
	SUBI R30,LOW(-@2)
	SBCI R31,HIGH(-@2)
	LD   R@0,Z+
	LD   R@1,Z
	.ENDM

	.MACRO __GETBRSX2
	MOVW R26,R28
	SUBI R26,LOW(-@1)
	SBCI R27,HIGH(-@1)
	LD   R@0,X
	.ENDM

	.MACRO __GETWRSX2
	MOVW R26,R28
	SUBI R26,LOW(-@2)
	SBCI R27,HIGH(-@2)
	LD   R@0,X+
	LD   R@1,X
	.ENDM

	.MACRO __LSLW8SX
	MOVW R30,R28
	SUBI R30,LOW(-@0)
	SBCI R31,HIGH(-@0)
	LD   R31,Z
	CLR  R30
	.ENDM

	.MACRO __PUTB1SX
	MOVW R26,R28
	SUBI R26,LOW(-@0)
	SBCI R27,HIGH(-@0)
	ST   X,R30
	.ENDM

	.MACRO __PUTW1SX
	MOVW R26,R28
	SUBI R26,LOW(-@0)
	SBCI R27,HIGH(-@0)
	ST   X+,R30
	ST   X,R31
	.ENDM

	.MACRO __PUTD1SX
	MOVW R26,R28
	SUBI R26,LOW(-@0)
	SBCI R27,HIGH(-@0)
	ST   X+,R30
	ST   X+,R31
	ST   X+,R22
	ST   X,R23
	.ENDM

	.MACRO __CLRW1SX
	MOVW R26,R28
	SUBI R26,LOW(-@0)
	SBCI R27,HIGH(-@0)
	ST   X+,R30
	ST   X,R30
	.ENDM

	.MACRO __CLRD1SX
	MOVW R26,R28
	SUBI R26,LOW(-@0)
	SBCI R27,HIGH(-@0)
	ST   X+,R30
	ST   X+,R30
	ST   X+,R30
	ST   X,R30
	.ENDM

	.MACRO __PUTB2SX
	MOVW R30,R28
	SUBI R30,LOW(-@0)
	SBCI R31,HIGH(-@0)
	ST   Z,R26
	.ENDM

	.MACRO __PUTW2SX
	MOVW R30,R28
	SUBI R30,LOW(-@0)
	SBCI R31,HIGH(-@0)
	ST   Z+,R26
	ST   Z,R27
	.ENDM

	.MACRO __PUTD2SX
	MOVW R30,R28
	SUBI R30,LOW(-@0)
	SBCI R31,HIGH(-@0)
	ST   Z+,R26
	ST   Z+,R27
	ST   Z+,R24
	ST   Z,R25
	.ENDM

	.MACRO __PUTBSRX
	MOVW R30,R28
	SUBI R30,LOW(-@1)
	SBCI R31,HIGH(-@1)
	ST   Z,R@0
	.ENDM

	.MACRO __PUTWSRX
	MOVW R30,R28
	SUBI R30,LOW(-@2)
	SBCI R31,HIGH(-@2)
	ST   Z+,R@0
	ST   Z,R@1
	.ENDM

	.MACRO __PUTB1SNX
	MOVW R26,R28
	SUBI R26,LOW(-@0)
	SBCI R27,HIGH(-@0)
	LD   R0,X+
	LD   R27,X
	MOV  R26,R0
	SUBI R26,LOW(-@1)
	SBCI R27,HIGH(-@1)
	ST   X,R30
	.ENDM

	.MACRO __PUTW1SNX
	MOVW R26,R28
	SUBI R26,LOW(-@0)
	SBCI R27,HIGH(-@0)
	LD   R0,X+
	LD   R27,X
	MOV  R26,R0
	SUBI R26,LOW(-@1)
	SBCI R27,HIGH(-@1)
	ST   X+,R30
	ST   X,R31
	.ENDM

	.MACRO __PUTD1SNX
	MOVW R26,R28
	SUBI R26,LOW(-@0)
	SBCI R27,HIGH(-@0)
	LD   R0,X+
	LD   R27,X
	MOV  R26,R0
	SUBI R26,LOW(-@1)
	SBCI R27,HIGH(-@1)
	ST   X+,R30
	ST   X+,R31
	ST   X+,R22
	ST   X,R23
	.ENDM

	.MACRO __MULBRR
	MULS R@0,R@1
	MOVW R30,R0
	.ENDM

	.MACRO __MULBRRU
	MUL  R@0,R@1
	MOVW R30,R0
	.ENDM

	.MACRO __MULBRR0
	MULS R@0,R@1
	.ENDM

	.MACRO __MULBRRU0
	MUL  R@0,R@1
	.ENDM

	.MACRO __MULBNWRU
	LDI  R26,@2
	MUL  R26,R@0
	MOVW R30,R0
	MUL  R26,R@1
	ADD  R31,R0
	.ENDM

;NAME DEFINITIONS FOR GLOBAL VARIABLES ALLOCATED TO REGISTERS
	.DEF _i=R3
	.DEF _i_msb=R4
	.DEF _a=R5
	.DEF _a_msb=R6
	.DEF _n=R7
	.DEF _n_msb=R8
	.DEF _time=R9
	.DEF _time_msb=R10
	.DEF _met=R11
	.DEF _met_msb=R12
	.DEF _x=R13
	.DEF _x_msb=R14

;GPIOR0 INITIALIZATION VALUE
	.EQU __GPIOR0_INIT=0x00

	.CSEG
	.ORG 0x00

;START OF CODE MARKER
__START_OF_CODE:

;INTERRUPT VECTORS
	JMP  __RESET
	JMP  0x00
	JMP  0x00
	JMP  0x00
	JMP  0x00
	JMP  0x00
	JMP  0x00
	JMP  0x00
	JMP  0x00
	JMP  0x00
	JMP  0x00
	JMP  0x00
	JMP  0x00
	JMP  0x00
	JMP  0x00
	JMP  0x00
	JMP  0x00
	JMP  0x00
	JMP  0x00
	JMP  0x00
	JMP  0x00
	JMP  0x00
	JMP  0x00
	JMP  0x00
	JMP  _twi_int_handler
	JMP  0x00

_font:
	.DB  0x0,0x0,0x0,0x0,0x0,0x3E,0x5B,0x4F
	.DB  0x5B,0x3E,0x3E,0x6B,0x4F,0x6B,0x3E,0x1C
	.DB  0x3E,0x7C,0x3E,0x1C,0x18,0x3C,0x7E,0x3C
	.DB  0x18,0x1C,0x57,0x7D,0x57,0x1C,0x1C,0x5E
	.DB  0x7F,0x5E,0x1C,0x0,0x18,0x3C,0x18,0x0
	.DB  0xFF,0xE7,0xC3,0xE7,0xFF,0x0,0x18,0x24
	.DB  0x18,0x0,0xFF,0xE7,0xDB,0xE7,0xFF,0x30
	.DB  0x48,0x3A,0x6,0xE,0x26,0x29,0x79,0x29
	.DB  0x26,0x40,0x7F,0x5,0x5,0x7,0x40,0x7F
	.DB  0x5,0x25,0x3F,0x5A,0x3C,0xE7,0x3C,0x5A
	.DB  0x7F,0x3E,0x1C,0x1C,0x8,0x8,0x1C,0x1C
	.DB  0x3E,0x7F,0x14,0x22,0x7F,0x22,0x14,0x5F
	.DB  0x5F,0x0,0x5F,0x5F,0x6,0x9,0x7F,0x1
	.DB  0x7F,0x0,0x66,0x89,0x95,0x6A,0x60,0x60
	.DB  0x60,0x60,0x60,0x94,0xA2,0xFF,0xA2,0x94
	.DB  0x8,0x4,0x7E,0x4,0x8,0x10,0x20,0x7E
	.DB  0x20,0x10,0x8,0x8,0x2A,0x1C,0x8,0x8
	.DB  0x1C,0x2A,0x8,0x8,0x1E,0x10,0x10,0x10
	.DB  0x10,0xC,0x1E,0xC,0x1E,0xC,0x30,0x38
	.DB  0x3E,0x38,0x30,0x6,0xE,0x3E,0xE,0x6
	.DB  0x0,0x0,0x0,0x0,0x0,0x0,0x0,0x5F
	.DB  0x0,0x0,0x0,0x7,0x0,0x7,0x0,0x14
	.DB  0x7F,0x14,0x7F,0x14,0x24,0x2A,0x7F,0x2A
	.DB  0x12,0x23,0x13,0x8,0x64,0x62,0x36,0x49
	.DB  0x56,0x20,0x50,0x0,0x8,0x7,0x3,0x0
	.DB  0x0,0x1C,0x22,0x41,0x0,0x0,0x41,0x22
	.DB  0x1C,0x0,0x2A,0x1C,0x7F,0x1C,0x2A,0x8
	.DB  0x8,0x3E,0x8,0x8,0x0,0x80,0x70,0x30
	.DB  0x0,0x8,0x8,0x8,0x8,0x8,0x0,0x0
	.DB  0x60,0x60,0x0,0x20,0x10,0x8,0x4,0x2
	.DB  0x3E,0x51,0x49,0x45,0x3E,0x0,0x42,0x7F
	.DB  0x40,0x0,0x72,0x49,0x49,0x49,0x46,0x21
	.DB  0x41,0x49,0x4D,0x33,0x18,0x14,0x12,0x7F
	.DB  0x10,0x27,0x45,0x45,0x45,0x39,0x3C,0x4A
	.DB  0x49,0x49,0x31,0x41,0x21,0x11,0x9,0x7
	.DB  0x36,0x49,0x49,0x49,0x36,0x46,0x49,0x49
	.DB  0x29,0x1E,0x0,0x0,0x14,0x0,0x0,0x0
	.DB  0x40,0x34,0x0,0x0,0x0,0x8,0x14,0x22
	.DB  0x41,0x14,0x14,0x14,0x14,0x14,0x0,0x41
	.DB  0x22,0x14,0x8,0x2,0x1,0x59,0x9,0x6
	.DB  0x3E,0x41,0x5D,0x59,0x4E,0x7C,0x12,0x11
	.DB  0x12,0x7C,0x7F,0x49,0x49,0x49,0x36,0x3E
	.DB  0x41,0x41,0x41,0x22,0x7F,0x41,0x41,0x41
	.DB  0x3E,0x7F,0x49,0x49,0x49,0x41,0x7F,0x9
	.DB  0x9,0x9,0x1,0x3E,0x41,0x41,0x51,0x73
	.DB  0x7F,0x8,0x8,0x8,0x7F,0x0,0x41,0x7F
	.DB  0x41,0x0,0x20,0x40,0x41,0x3F,0x1,0x7F
	.DB  0x8,0x14,0x22,0x41,0x7F,0x40,0x40,0x40
	.DB  0x40,0x7F,0x2,0x1C,0x2,0x7F,0x7F,0x4
	.DB  0x8,0x10,0x7F,0x3E,0x41,0x41,0x41,0x3E
	.DB  0x7F,0x9,0x9,0x9,0x6,0x3E,0x41,0x51
	.DB  0x21,0x5E,0x7F,0x9,0x19,0x29,0x46,0x26
	.DB  0x49,0x49,0x49,0x32,0x3,0x1,0x7F,0x1
	.DB  0x3,0x3F,0x40,0x40,0x40,0x3F,0x1F,0x20
	.DB  0x40,0x20,0x1F,0x3F,0x40,0x38,0x40,0x3F
	.DB  0x63,0x14,0x8,0x14,0x63,0x3,0x4,0x78
	.DB  0x4,0x3,0x61,0x59,0x49,0x4D,0x43,0x0
	.DB  0x7F,0x41,0x41,0x41,0x2,0x4,0x8,0x10
	.DB  0x20,0x0,0x41,0x41,0x41,0x7F,0x4,0x2
	.DB  0x1,0x2,0x4,0x40,0x40,0x40,0x40,0x40
	.DB  0x0,0x3,0x7,0x8,0x0,0x20,0x54,0x54
	.DB  0x78,0x40,0x7F,0x28,0x44,0x44,0x38,0x38
	.DB  0x44,0x44,0x44,0x28,0x38,0x44,0x44,0x28
	.DB  0x7F,0x38,0x54,0x54,0x54,0x18,0x0,0x8
	.DB  0x7E,0x9,0x2,0x18,0xA4,0xA4,0x9C,0x78
	.DB  0x7F,0x8,0x4,0x4,0x78,0x0,0x44,0x7D
	.DB  0x40,0x0,0x20,0x40,0x40,0x3D,0x0,0x7F
	.DB  0x10,0x28,0x44,0x0,0x0,0x41,0x7F,0x40
	.DB  0x0,0x7C,0x4,0x78,0x4,0x78,0x7C,0x8
	.DB  0x4,0x4,0x78,0x38,0x44,0x44,0x44,0x38
	.DB  0xFC,0x18,0x24,0x24,0x18,0x18,0x24,0x24
	.DB  0x18,0xFC,0x7C,0x8,0x4,0x4,0x8,0x48
	.DB  0x54,0x54,0x54,0x24,0x4,0x4,0x3F,0x44
	.DB  0x24,0x3C,0x40,0x40,0x20,0x7C,0x1C,0x20
	.DB  0x40,0x20,0x1C,0x3C,0x40,0x30,0x40,0x3C
	.DB  0x44,0x28,0x10,0x28,0x44,0x4C,0x90,0x90
	.DB  0x90,0x7C,0x44,0x64,0x54,0x4C,0x44,0x0
	.DB  0x8,0x36,0x41,0x0,0x0,0x0,0x77,0x0
	.DB  0x0,0x0,0x41,0x36,0x8,0x0,0x2,0x1
	.DB  0x2,0x4,0x2,0x3C,0x26,0x23,0x26,0x3C
	.DB  0x0,0x0,0x0,0x0,0x0,0x7F,0x1,0x1
	.DB  0x1,0x3,0x0,0x0,0x0,0x0,0x0,0x0
	.DB  0x0,0x0,0x0,0x0,0x0,0x0,0x0,0x0
	.DB  0x0,0x0,0x0,0x0,0x0,0x0,0x0,0x0
	.DB  0x0,0x0,0x0,0x0,0x0,0x0,0x0,0x0
	.DB  0x0,0x0,0x0,0x0,0x0,0x0,0x0,0x0
	.DB  0x0,0x0,0x0,0x0,0x0,0x0,0x0,0x0
	.DB  0x0,0x0,0x0,0x0,0x0,0x0,0x0,0x0
	.DB  0x0,0x0,0x0,0x0,0x0,0x0,0x0,0x0
	.DB  0x0,0x0,0x0,0x0,0x0,0x0,0x0,0x0
	.DB  0x0,0x0,0x0,0x0,0x0,0x0,0x0,0x0
	.DB  0x0,0x0,0x0,0x0,0x0,0x0,0x0,0x0
	.DB  0x0,0x0,0x0,0x0,0x0,0x0,0x0,0x0
	.DB  0x0,0x0,0x0,0x0,0x0,0x0,0x0,0x0
	.DB  0x0,0x0,0x0,0x0,0x0,0x0,0x0,0x0
	.DB  0x0,0x0,0x0,0x0,0x0,0x0,0x0,0x0
	.DB  0x0,0x0,0x0,0x0,0x0,0x0,0x0,0x0
	.DB  0x0,0x0,0x0,0x0,0x0,0x0,0x0,0x0
	.DB  0x0,0x0,0x0,0x0,0x0,0x0,0x0,0x0
	.DB  0x0,0x0,0x0,0x0,0x0,0x0,0x0,0x0
	.DB  0x0,0x0,0x0,0x0,0x0,0x0,0x0,0x0
	.DB  0x0,0x0,0x0,0x0,0x0,0x0,0x0,0x0
	.DB  0x0,0x0,0x0,0x0,0x0,0x0,0x0,0x0
	.DB  0x0,0x7F,0x1,0x1,0x1,0x3,0x0,0x0
	.DB  0x0,0x0,0x0,0x0,0x0,0x0,0x0,0x0
	.DB  0x7F,0x49,0x49,0x49,0x49,0x0,0x0,0x0
	.DB  0x0,0x0,0x3E,0x49,0x49,0x41,0x22,0x0
	.DB  0x0,0x0,0x0,0x0,0x0,0x0,0x0,0x0
	.DB  0x0,0x0,0x0,0x0,0x0,0x0,0x0,0x0
	.DB  0x0,0x0,0x0,0x0,0x43,0x7E,0x43,0x0
	.DB  0x0,0x0,0x0,0x0,0x0,0x0,0x0,0x0
	.DB  0x0,0x0,0x0,0x41,0x7F,0x41,0x0,0x0
	.DB  0x44,0x7D,0x40,0x0,0x7C,0x4,0x4,0x4
	.DB  0xC,0x0,0x0,0x0,0x0,0x0,0x0,0x0
	.DB  0x0,0x0,0x0,0x0,0x0,0x0,0x0,0x0
	.DB  0x38,0x54,0x54,0x54,0x8,0x0,0x0,0x0
	.DB  0x0,0x0,0x38,0x54,0x54,0x44,0x28,0x0
	.DB  0x0,0x0,0x0,0x0,0x0,0x0,0x0,0x0
	.DB  0x0,0x0,0x0,0x0,0x0,0x0,0x0,0x0
	.DB  0x0,0x0,0x0,0x0,0x45,0x7C,0x41,0x0
	.DB  0x7E,0x11,0x11,0x11,0x7E,0x7F,0x49,0x49
	.DB  0x49,0x33,0x7F,0x49,0x49,0x49,0x36,0x7F
	.DB  0x1,0x1,0x1,0x3,0xE0,0x51,0x4F,0x41
	.DB  0xFF,0x7F,0x49,0x49,0x49,0x49,0x77,0x8
	.DB  0x7F,0x8,0x77,0x49,0x49,0x49,0x49,0x36
	.DB  0x7F,0x10,0x8,0x4,0x7F,0x7C,0x21,0x12
	.DB  0x9,0x7C,0x7F,0x8,0x14,0x22,0x41,0x20
	.DB  0x41,0x3F,0x1,0x7F,0x7F,0x2,0xC,0x2
	.DB  0x7F,0x7F,0x8,0x8,0x8,0x7F,0x3E,0x41
	.DB  0x41,0x41,0x3E,0x7F,0x1,0x1,0x1,0x7F
	.DB  0x7F,0x9,0x9,0x9,0x6,0x3E,0x41,0x41
	.DB  0x41,0x22,0x1,0x1,0x7F,0x1,0x1,0x27
	.DB  0x48,0x48,0x48,0x3F,0x1C,0x22,0x7F,0x22
	.DB  0x1C,0x63,0x14,0x8,0x14,0x63,0x7F,0x40
	.DB  0x40,0x40,0xFF,0x7,0x8,0x8,0x8,0x7F
	.DB  0x7F,0x40,0x7F,0x40,0x7F,0x7F,0x40,0x7F
	.DB  0x40,0xFF,0x1,0x7F,0x48,0x48,0x30,0x7F
	.DB  0x48,0x30,0x0,0x7F,0x7F,0x48,0x48,0x30
	.DB  0x0,0x22,0x41,0x49,0x49,0x3E,0x7F,0x8
	.DB  0x3E,0x41,0x3E,0x46,0x29,0x19,0x9,0x7F
	.DB  0x20,0x54,0x54,0x54,0x78,0x3C,0x4A,0x4A
	.DB  0x49,0x31,0x7C,0x54,0x54,0x28,0x0,0x7C
	.DB  0x4,0x4,0x4,0xC,0xE0,0x54,0x4C,0x44
	.DB  0xFC,0x38,0x54,0x54,0x54,0x8,0x6C,0x10
	.DB  0x7C,0x10,0x6C,0x44,0x44,0x54,0x54,0x28
	.DB  0x7C,0x20,0x10,0x8,0x7C,0x78,0x42,0x24
	.DB  0x12,0x78,0x7C,0x10,0x28,0x44,0x0,0x20
	.DB  0x44,0x3C,0x4,0x7C,0x7C,0x8,0x10,0x8
	.DB  0x7C,0x7C,0x10,0x10,0x10,0x7C,0x38,0x44
	.DB  0x44,0x44,0x38,0x7C,0x4,0x4,0x4,0x7C
	.DB  0x7C,0x14,0x14,0x14,0x8,0x38,0x44,0x44
	.DB  0x44,0x44,0x4,0x4,0x7C,0x4,0x4,0xC
	.DB  0x50,0x50,0x50,0x3C,0x18,0x24,0x7E,0x24
	.DB  0x18,0x44,0x28,0x10,0x28,0x44,0x7C,0x40
	.DB  0x40,0x40,0xFC,0xC,0x10,0x10,0x10,0x7C
	.DB  0x7C,0x40,0x7C,0x40,0x7C,0x7C,0x40,0x7C
	.DB  0x40,0xFC,0x4,0x7C,0x50,0x50,0x20,0x7C
	.DB  0x50,0x20,0x0,0x7C,0x7C,0x50,0x50,0x20
	.DB  0x0,0x28,0x44,0x54,0x54,0x38,0x7C,0x10
	.DB  0x38,0x44,0x38,0x8,0x54,0x34,0x14,0x7C

_0x3:
	.DB  0x0,0x0,0x0,0x0,0x0,0x0,0x0,0x0
	.DB  0x0,0x0,0x0,0x0,0x0,0x0,0x0,0x0
	.DB  0x0,0x0,0x0,0x0,0x0,0x0,0x0,0x0
	.DB  0x0,0x0,0x0,0x0,0x0,0x0,0x0,0x0
	.DB  0x0,0x0,0x0,0x0,0x0,0x0,0x0,0x0
	.DB  0x0,0x0,0x0,0x0,0x0,0x0,0x0,0x0
	.DB  0x0,0x0,0x0,0x0,0x0,0x0,0x0,0x0
	.DB  0x0,0x0,0x0,0x0,0x0,0x0,0x0,0x80
	.DB  0x80,0x80,0x0,0x0,0x0,0x0,0x0,0x0
	.DB  0x0,0x0,0x0,0x0,0x0,0x0,0x0,0x0
	.DB  0x0,0x80,0x80,0xC0,0xC0,0x0,0x0,0x0
	.DB  0x0,0x0,0x0,0x0,0x0,0x0,0x0,0x0
	.DB  0x0,0x0,0x0,0x0,0x0,0x0,0x0,0x0
	.DB  0x0,0x0,0x0,0x0,0x0,0x0,0x0,0x0
	.DB  0x0,0x0,0x0,0x0,0x0,0x0,0x0,0x0
	.DB  0x0,0x0,0x0,0x0,0x0,0x0,0x0,0x0
	.DB  0x0,0x0,0x0,0x0,0x0,0x0,0x0,0x0
	.DB  0x0,0x0,0x0,0x0,0x0,0x0,0x0,0x0
	.DB  0x0,0x0,0x0,0x0,0x80,0xC0,0xE0,0xF0
	.DB  0xF8,0xFC,0xF8,0xE0,0x0,0x0,0x0,0x0
	.DB  0x0,0x0,0x0,0x0,0x0,0x0,0x0,0x0
	.DB  0x0,0x0,0x0,0x0,0x0,0x80,0x80,0x80
	.DB  0x80,0x80,0x0,0x80,0x80,0x0,0x0,0x0
	.DB  0x0,0x80,0x80,0x80,0x80,0x80,0x0,0xFF
	.DB  0xFF,0xFF,0x0,0x0,0x0,0x0,0x80,0x80
	.DB  0x80,0x80,0x0,0x0,0x80,0x80,0x0,0x0
	.DB  0x80,0xFF,0xFF,0x80,0x80,0x0,0x80,0x80
	.DB  0x0,0x80,0x80,0x80,0x80,0x0,0x80,0x80
	.DB  0x0,0x0,0x0,0x0,0x0,0x80,0x80,0x0
	.DB  0x0,0x8C,0x8E,0x84,0x0,0x0,0x80,0xF8
	.DB  0xF8,0xF8,0x80,0x0,0x0,0x0,0x0,0x0
	.DB  0x0,0x0,0x0,0x0,0x0,0x0,0x0,0x0
	.DB  0xF0,0xF0,0xF0,0xF0,0xF0,0xF0,0xF0,0xF0
	.DB  0xF0,0xF0,0xF0,0xF0,0xE0,0xE0,0xC0,0x80
	.DB  0x0,0xE0,0xFC,0xFE,0xFF,0xFF,0xFF,0x7F
	.DB  0xFF,0xFF,0xFF,0xFF,0xFF,0x0,0x0,0x0
	.DB  0x0,0x0,0x0,0x0,0x0,0x0,0x0,0x0
	.DB  0x0,0x0,0x0,0xFE,0xFF,0xC7,0x1,0x1
	.DB  0x1,0x1,0x83,0xFF,0xFF,0x0,0x0,0x7C
	.DB  0xFE,0xC7,0x1,0x1,0x1,0x1,0x83,0xFF
	.DB  0xFF,0xFF,0x0,0x38,0xFE,0xC7,0x83,0x1
	.DB  0x1,0x1,0x83,0xC7,0xFF,0xFF,0x0,0x0
	.DB  0x1,0xFF,0xFF,0x1,0x1,0x0,0xFF,0xFF
	.DB  0x7,0x1,0x1,0x1,0x0,0x0,0x7F,0xFF
	.DB  0x80,0x0,0x0,0x0,0xFF,0xFF,0x7F,0x0
	.DB  0x0,0xFF,0xFF,0xFF,0x0,0x0,0x1,0xFF
	.DB  0xFF,0xFF,0x1,0x0,0x0,0x0,0x0,0x0
	.DB  0x0,0x0,0x0,0x0,0x0,0x0,0x0,0x0
	.DB  0x3,0xF,0x3F,0x7F,0x7F,0xFF,0xFF,0xFF
	.DB  0xFF,0xFF,0xFF,0xFF,0xE7,0xC7,0xC7,0x8F
	.DB  0x8F,0x9F,0xBF,0xFF,0xFF,0xC3,0xC0,0xF0
	.DB  0xFF,0xFF,0xFF,0xFF,0xFF,0xFC,0xFC,0xFC
	.DB  0xFC,0xFC,0xFC,0xFC,0xFC,0xF8,0xF8,0xF0
	.DB  0xF0,0xE0,0xC0,0x0,0x1,0x3,0x3,0x3
	.DB  0x3,0x3,0x1,0x3,0x3,0x0,0x0,0x0
	.DB  0x0,0x1,0x3,0x3,0x3,0x3,0x1,0x1
	.DB  0x3,0x1,0x0,0x0,0x0,0x1,0x3,0x3
	.DB  0x3,0x3,0x1,0x1,0x3,0x3,0x0,0x0
	.DB  0x0,0x3,0x3,0x0,0x0,0x0,0x3,0x3
	.DB  0x0,0x0,0x0,0x0,0x0,0x0,0x0,0x1
	.DB  0x3,0x3,0x3,0x3,0x3,0x1,0x0,0x0
	.DB  0x0,0x1,0x3,0x1,0x0,0x0,0x0,0x3
	.DB  0x3,0x1,0x0,0x0,0x0,0x0,0x0,0x0
	.DB  0x0,0x0,0x0,0x0,0x0,0x0,0x0,0x0
	.DB  0x0,0x0,0x0,0x80,0xC0,0xE0,0xF0,0xF9
	.DB  0xFF,0xFF,0xFF,0xFF,0xFF,0x3F,0x1F,0xF
	.DB  0x87,0xC7,0xF7,0xFF,0xFF,0x1F,0x1F,0x3D
	.DB  0xFC,0xF8,0xF8,0xF8,0xF8,0x7C,0x7D,0xFF
	.DB  0xFF,0xFF,0xFF,0xFF,0xFF,0xFF,0xFF,0x7F
	.DB  0x3F,0xF,0x7,0x0,0x30,0x30,0x0,0x0
	.DB  0x0,0x0,0x0,0x0,0x0,0x0,0x0,0x0
	.DB  0x0,0x0,0x0,0x0,0x0,0x0,0x0,0x0
	.DB  0x0,0x0,0x0,0x0,0xFE,0xFE,0xFC,0x0
	.DB  0x0,0x0,0x0,0x0,0x0,0x0,0x0,0x0
	.DB  0x0,0x0,0x0,0x0,0x0,0x0,0x0,0x0
	.DB  0x0,0x0,0x0,0x0,0x0,0xE0,0xC0,0x0
	.DB  0x0,0x0,0x0,0x0,0x0,0x0,0x0,0x0
	.DB  0x0,0x0,0x30,0x30,0x0,0x0,0x0,0x0
	.DB  0x0,0x0,0x0,0x0,0x0,0x0,0x0,0x0
	.DB  0x0,0x0,0x0,0x0,0x0,0x0,0x0,0x0
	.DB  0x0,0xC0,0xFE,0xFF,0xFF,0xFF,0xFF,0xFF
	.DB  0xFF,0xFF,0xFF,0xFF,0x7F,0x7F,0x3F,0x1F
	.DB  0xF,0x7,0x1F,0x7F,0xFF,0xFF,0xF8,0xF8
	.DB  0xFF,0xFF,0xFF,0xFF,0xFF,0xFE,0xF8,0xE0
	.DB  0x0,0x0,0x0,0x1,0x0,0x0,0x0,0x0
	.DB  0x0,0x0,0x0,0x0,0xFE,0xFE,0x0,0x0
	.DB  0x0,0xFC,0xFE,0xFC,0xC,0x6,0x6,0xE
	.DB  0xFC,0xF8,0x0,0x0,0xF0,0xF8,0x1C,0xE
	.DB  0x6,0x6,0x6,0xC,0xFF,0xFF,0xFF,0x0
	.DB  0x0,0xFE,0xFE,0x0,0x0,0x0,0x0,0xFC
	.DB  0xFE,0xFC,0x0,0x18,0x3C,0x7E,0x66,0xE6
	.DB  0xCE,0x84,0x0,0x0,0x6,0xFF,0xFF,0x6
	.DB  0x6,0xFC,0xFE,0xFC,0xC,0x6,0x6,0x6
	.DB  0x0,0x0,0xFE,0xFE,0x0,0x0,0xC0,0xF8
	.DB  0xFC,0x4E,0x46,0x46,0x46,0x4E,0x7C,0x78
	.DB  0x40,0x18,0x3C,0x76,0xE6,0xCE,0xCC,0x80
	.DB  0x0,0x0,0x0,0x0,0x0,0x0,0x0,0x0
	.DB  0x0,0x0,0x0,0x0,0x0,0x0,0x0,0x0
	.DB  0x0,0x0,0x0,0x0,0x1,0x7,0xF,0x1F
	.DB  0x1F,0x3F,0x3F,0x3F,0x3F,0x1F,0xF,0x3
	.DB  0x0,0x0,0x0,0x0,0x0,0x0,0x0,0x0
	.DB  0x0,0x0,0x0,0x0,0xF,0xF,0x0,0x0
	.DB  0x0,0xF,0xF,0xF,0x0,0x0,0x0,0x0
	.DB  0xF,0xF,0x0,0x0,0x3,0x7,0xE,0xC
	.DB  0x18,0x18,0xC,0x6,0xF,0xF,0xF,0x0
	.DB  0x0,0x1,0xF,0xE,0xC,0x18,0xC,0xF
	.DB  0x7,0x1,0x0,0x4,0xE,0xC,0x18,0xC
	.DB  0xF,0x7,0x0,0x0,0x0,0xF,0xF,0x0
	.DB  0x0,0xF,0xF,0xF,0x0,0x0,0x0,0x0
	.DB  0x0,0x0,0xF,0xF,0x0,0x0,0x0,0x7
	.DB  0x7,0xC,0xC,0x18,0x1C,0xC,0x6,0x6
	.DB  0x0,0x4,0xE,0xC,0x18,0xC,0xF,0x7
_0x29:
	.DB  0x20
_0x2A:
	.DB  0x80,0xAE,0x80,0xD5,0x80,0x80,0x80,0xA8
	.DB  0x80,0x3F,0x80,0xD3,0x80,0x0,0x80,0x40
	.DB  0x80,0x8D,0x80,0x14,0x80,0x20,0x80,0x0
	.DB  0x80,0xA1,0x80,0xC8,0x80,0xDA,0x80,0x12
	.DB  0x80,0x81,0x80,0xCF,0x80,0xD9,0x80,0xF1
	.DB  0x80,0xDB,0x80,0x40,0x80,0xA4,0x80,0xA6
	.DB  0x80,0xAF
_0x0:
	.DB  0xD4,0x3A,0x0
_0x2020003:
	.DB  0x7

__GLOBAL_INI_TBL:
	.DW  0x380
	.DW  _buffer
	.DW  _0x3*2

	.DW  0x01
	.DW  _y0
	.DW  _0x29*2

	.DW  0x32
	.DW  _tx_data0
	.DW  _0x2A*2

	.DW  0x03
	.DW  _0x48
	.DW  _0x0*2

	.DW  0x03
	.DW  _0x48+3
	.DW  _0x0*2

	.DW  0x01
	.DW  _twi_result
	.DW  _0x2020003*2

_0xFFFFFFFF:
	.DW  0

#define __GLOBAL_INI_TBL_PRESENT 1

__RESET:
	CLI
	CLR  R30
	OUT  EECR,R30

;INTERRUPT VECTORS ARE PLACED
;AT THE START OF FLASH
	LDI  R31,1
	OUT  MCUCR,R31
	OUT  MCUCR,R30

;CLEAR R2-R14
	LDI  R24,(14-2)+1
	LDI  R26,2
	CLR  R27
__CLEAR_REG:
	ST   X+,R30
	DEC  R24
	BRNE __CLEAR_REG

;CLEAR SRAM
	LDI  R24,LOW(__CLEAR_SRAM_SIZE)
	LDI  R25,HIGH(__CLEAR_SRAM_SIZE)
	LDI  R26,LOW(__SRAM_START)
	LDI  R27,HIGH(__SRAM_START)
__CLEAR_SRAM:
	ST   X+,R30
	SBIW R24,1
	BRNE __CLEAR_SRAM

;GLOBAL VARIABLES INITIALIZATION
	LDI  R30,LOW(__GLOBAL_INI_TBL*2)
	LDI  R31,HIGH(__GLOBAL_INI_TBL*2)
__GLOBAL_INI_NEXT:
	LPM  R24,Z+
	LPM  R25,Z+
	SBIW R24,0
	BREQ __GLOBAL_INI_END
	LPM  R26,Z+
	LPM  R27,Z+
	LPM  R0,Z+
	LPM  R1,Z+
	MOVW R22,R30
	MOVW R30,R0
__GLOBAL_INI_LOOP:
	LPM  R0,Z+
	ST   X+,R0
	SBIW R24,1
	BRNE __GLOBAL_INI_LOOP
	MOVW R30,R22
	RJMP __GLOBAL_INI_NEXT
__GLOBAL_INI_END:

;GPIOR0 INITIALIZATION
	LDI  R30,__GPIOR0_INIT
	OUT  GPIOR0,R30

;HARDWARE STACK POINTER INITIALIZATION
	LDI  R30,LOW(__SRAM_END-__HEAP_SIZE)
	OUT  SPL,R30
	LDI  R30,HIGH(__SRAM_END-__HEAP_SIZE)
	OUT  SPH,R30

;DATA STACK POINTER INITIALIZATION
	LDI  R28,LOW(__SRAM_START+__DSTACK_SIZE)
	LDI  R29,HIGH(__SRAM_START+__DSTACK_SIZE)

	JMP  _main

	.ESEG
	.ORG 0

	.DSEG
	.ORG 0x300

	.CSEG
;/*******************************************************
;This program was created by the
;CodeWizardAVR V3.12 Advanced
;Automatic Program Generator
;© Copyright 1998-2014 Pavel Haiduc, HP InfoTech s.r.l.
;http://www.hpinfotech.com
;
;Project :
;Version :
;Date    : 04.02.2015
;Author  :
;Company :
;Comments:
;
;
;Chip type               : ATmega328P
;Program type            : Application
;AVR Core Clock frequency: 8,000000 MHz
;Memory model            : Small
;External RAM size       : 0
;Data Stack size         : 512
;*******************************************************/
;
;#include <mega328p.h>
	#ifndef __SLEEP_DEFINED__
	#define __SLEEP_DEFINED__
	.EQU __se_bit=0x01
	.EQU __sm_mask=0x0E
	.EQU __sm_adc_noise_red=0x02
	.EQU __sm_powerdown=0x04
	.EQU __sm_powersave=0x06
	.EQU __sm_standby=0x0C
	.EQU __sm_ext_standby=0x0E
	.SET power_ctrl_reg=smcr
	#endif
;#include <sleep.h>
;#include <delay.h>
;#include "glcdfont.c"
;// Standard ASCII 5x7 font
;flash unsigned char font[] = {
;    0x00, 0x00, 0x00, 0x00, 0x00,
;	0x3E, 0x5B, 0x4F, 0x5B, 0x3E,
;	0x3E, 0x6B, 0x4F, 0x6B, 0x3E,
;	0x1C, 0x3E, 0x7C, 0x3E, 0x1C,
;	0x18, 0x3C, 0x7E, 0x3C, 0x18,
;	0x1C, 0x57, 0x7D, 0x57, 0x1C,
;	0x1C, 0x5E, 0x7F, 0x5E, 0x1C,
;	0x00, 0x18, 0x3C, 0x18, 0x00,
;	0xFF, 0xE7, 0xC3, 0xE7, 0xFF,
;	0x00, 0x18, 0x24, 0x18, 0x00,
;	0xFF, 0xE7, 0xDB, 0xE7, 0xFF,
;	0x30, 0x48, 0x3A, 0x06, 0x0E,
;	0x26, 0x29, 0x79, 0x29, 0x26,
;	0x40, 0x7F, 0x05, 0x05, 0x07,
;	0x40, 0x7F, 0x05, 0x25, 0x3F,
;	0x5A, 0x3C, 0xE7, 0x3C, 0x5A,
;	0x7F, 0x3E, 0x1C, 0x1C, 0x08,
;	0x08, 0x1C, 0x1C, 0x3E, 0x7F,
;	0x14, 0x22, 0x7F, 0x22, 0x14,
;	0x5F, 0x5F, 0x00, 0x5F, 0x5F,
;	0x06, 0x09, 0x7F, 0x01, 0x7F,
;	0x00, 0x66, 0x89, 0x95, 0x6A,
;	0x60, 0x60, 0x60, 0x60, 0x60,
;	0x94, 0xA2, 0xFF, 0xA2, 0x94,
;	0x08, 0x04, 0x7E, 0x04, 0x08,
;	0x10, 0x20, 0x7E, 0x20, 0x10,
;	0x08, 0x08, 0x2A, 0x1C, 0x08,
;	0x08, 0x1C, 0x2A, 0x08, 0x08,
;	0x1E, 0x10, 0x10, 0x10, 0x10,
;	0x0C, 0x1E, 0x0C, 0x1E, 0x0C,
;	0x30, 0x38, 0x3E, 0x38, 0x30,
;	0x06, 0x0E, 0x3E, 0x0E, 0x06,
;	0x00, 0x00, 0x00, 0x00, 0x00,
;	0x00, 0x00, 0x5F, 0x00, 0x00,
;	0x00, 0x07, 0x00, 0x07, 0x00,
;	0x14, 0x7F, 0x14, 0x7F, 0x14,
;	0x24, 0x2A, 0x7F, 0x2A, 0x12,
;	0x23, 0x13, 0x08, 0x64, 0x62,
;	0x36, 0x49, 0x56, 0x20, 0x50,
;	0x00, 0x08, 0x07, 0x03, 0x00,
;	0x00, 0x1C, 0x22, 0x41, 0x00,
;	0x00, 0x41, 0x22, 0x1C, 0x00,
;	0x2A, 0x1C, 0x7F, 0x1C, 0x2A,
;	0x08, 0x08, 0x3E, 0x08, 0x08,
;	0x00, 0x80, 0x70, 0x30, 0x00,
;	0x08, 0x08, 0x08, 0x08, 0x08,
;	0x00, 0x00, 0x60, 0x60, 0x00,
;	0x20, 0x10, 0x08, 0x04, 0x02,
;	0x3E, 0x51, 0x49, 0x45, 0x3E,
;	0x00, 0x42, 0x7F, 0x40, 0x00,
;	0x72, 0x49, 0x49, 0x49, 0x46,
;	0x21, 0x41, 0x49, 0x4D, 0x33,
;	0x18, 0x14, 0x12, 0x7F, 0x10,
;	0x27, 0x45, 0x45, 0x45, 0x39,
;	0x3C, 0x4A, 0x49, 0x49, 0x31,
;	0x41, 0x21, 0x11, 0x09, 0x07,
;	0x36, 0x49, 0x49, 0x49, 0x36,
;	0x46, 0x49, 0x49, 0x29, 0x1E,
;	0x00, 0x00, 0x14, 0x00, 0x00,
;	0x00, 0x40, 0x34, 0x00, 0x00,
;	0x00, 0x08, 0x14, 0x22, 0x41,
;	0x14, 0x14, 0x14, 0x14, 0x14,
;	0x00, 0x41, 0x22, 0x14, 0x08,
;	0x02, 0x01, 0x59, 0x09, 0x06,
;	0x3E, 0x41, 0x5D, 0x59, 0x4E,
;	0x7C, 0x12, 0x11, 0x12, 0x7C,
;	0x7F, 0x49, 0x49, 0x49, 0x36,
;	0x3E, 0x41, 0x41, 0x41, 0x22,
;	0x7F, 0x41, 0x41, 0x41, 0x3E,
;	0x7F, 0x49, 0x49, 0x49, 0x41,
;	0x7F, 0x09, 0x09, 0x09, 0x01,
;	0x3E, 0x41, 0x41, 0x51, 0x73,
;	0x7F, 0x08, 0x08, 0x08, 0x7F,
;	0x00, 0x41, 0x7F, 0x41, 0x00,
;	0x20, 0x40, 0x41, 0x3F, 0x01,
;	0x7F, 0x08, 0x14, 0x22, 0x41,
;	0x7F, 0x40, 0x40, 0x40, 0x40,
;	0x7F, 0x02, 0x1C, 0x02, 0x7F,
;	0x7F, 0x04, 0x08, 0x10, 0x7F,
;	0x3E, 0x41, 0x41, 0x41, 0x3E,
;	0x7F, 0x09, 0x09, 0x09, 0x06,
;	0x3E, 0x41, 0x51, 0x21, 0x5E,
;	0x7F, 0x09, 0x19, 0x29, 0x46,
;	0x26, 0x49, 0x49, 0x49, 0x32,
;	0x03, 0x01, 0x7F, 0x01, 0x03,
;	0x3F, 0x40, 0x40, 0x40, 0x3F,
;	0x1F, 0x20, 0x40, 0x20, 0x1F,
;	0x3F, 0x40, 0x38, 0x40, 0x3F,
;	0x63, 0x14, 0x08, 0x14, 0x63,
;	0x03, 0x04, 0x78, 0x04, 0x03,
;	0x61, 0x59, 0x49, 0x4D, 0x43,
;	0x00, 0x7F, 0x41, 0x41, 0x41,
;	0x02, 0x04, 0x08, 0x10, 0x20,
;	0x00, 0x41, 0x41, 0x41, 0x7F,
;	0x04, 0x02, 0x01, 0x02, 0x04,
;	0x40, 0x40, 0x40, 0x40, 0x40,
;	0x00, 0x03, 0x07, 0x08, 0x00,
;	0x20, 0x54, 0x54, 0x78, 0x40,
;	0x7F, 0x28, 0x44, 0x44, 0x38,
;	0x38, 0x44, 0x44, 0x44, 0x28,
;	0x38, 0x44, 0x44, 0x28, 0x7F,
;	0x38, 0x54, 0x54, 0x54, 0x18,
;	0x00, 0x08, 0x7E, 0x09, 0x02,
;	0x18, 0xA4, 0xA4, 0x9C, 0x78,
;	0x7F, 0x08, 0x04, 0x04, 0x78,
;	0x00, 0x44, 0x7D, 0x40, 0x00,
;	0x20, 0x40, 0x40, 0x3D, 0x00,
;	0x7F, 0x10, 0x28, 0x44, 0x00,
;	0x00, 0x41, 0x7F, 0x40, 0x00,
;	0x7C, 0x04, 0x78, 0x04, 0x78,
;	0x7C, 0x08, 0x04, 0x04, 0x78,
;	0x38, 0x44, 0x44, 0x44, 0x38,
;	0xFC, 0x18, 0x24, 0x24, 0x18,
;	0x18, 0x24, 0x24, 0x18, 0xFC,
;	0x7C, 0x08, 0x04, 0x04, 0x08,
;	0x48, 0x54, 0x54, 0x54, 0x24,
;	0x04, 0x04, 0x3F, 0x44, 0x24,
;	0x3C, 0x40, 0x40, 0x20, 0x7C,
;	0x1C, 0x20, 0x40, 0x20, 0x1C,
;	0x3C, 0x40, 0x30, 0x40, 0x3C,
;	0x44, 0x28, 0x10, 0x28, 0x44,
;	0x4C, 0x90, 0x90, 0x90, 0x7C,
;	0x44, 0x64, 0x54, 0x4C, 0x44,
;	0x00, 0x08, 0x36, 0x41, 0x00,
;	0x00, 0x00, 0x77, 0x00, 0x00,
;	0x00, 0x41, 0x36, 0x08, 0x00,
;	0x02, 0x01, 0x02, 0x04, 0x02,
;	0x3C, 0x26, 0x23, 0x26, 0x3C,
;    0x00, 0x00, 0x00, 0x00, 0x00,
;	0x7F, 0x01, 0x01, 0x01, 0x03 ,  // Ã
;	0x00, 0x00, 0x00, 0x00, 0x00,
;	0x00, 0x00, 0x00, 0x00, 0x00,
;	0x00, 0x00, 0x00, 0x00, 0x00,
;	0x00, 0x00, 0x00, 0x00, 0x00,
;	0x00, 0x00, 0x00, 0x00, 0x00,
;	0x00, 0x00, 0x00, 0x00, 0x00,
;	0x00, 0x00, 0x00, 0x00, 0x00,
;	0x00, 0x00, 0x00, 0x00, 0x00,
;	0x00, 0x00, 0x00, 0x00, 0x00,
;	0x00, 0x00, 0x00, 0x00, 0x00,
;	0x00, 0x00, 0x00, 0x00, 0x00,
;	0x00, 0x00, 0x00, 0x00, 0x00,
;	0x00, 0x00, 0x00, 0x00, 0x00,
;	0x00, 0x00, 0x00, 0x00, 0x00,
;	0x00, 0x00, 0x00, 0x00, 0x00,
;	0x00, 0x00, 0x00, 0x00, 0x00,
;	0x00, 0x00, 0x00, 0x00, 0x00,
;	0x00, 0x00, 0x00, 0x00, 0x00,
;	0x00, 0x00, 0x00, 0x00, 0x00,
;	0x00, 0x00, 0x00, 0x00, 0x00,
;	0x00, 0x00, 0x00, 0x00, 0x00,
;	0x00, 0x00, 0x00, 0x00, 0x00,
;	0x00, 0x00, 0x00, 0x00, 0x00,
;	0x00, 0x00, 0x00, 0x00, 0x00,
;	0x00, 0x00, 0x00, 0x00, 0x00,
;	0x00, 0x00, 0x00, 0x00, 0x00,
;	0x00, 0x00, 0x00, 0x00, 0x00,
;	0x00, 0x00, 0x00, 0x00, 0x00,
;	0x00, 0x00, 0x00, 0x00, 0x00,
;	0x00, 0x00, 0x00, 0x00, 0x00,
;	0x00, 0x00, 0x00, 0x00, 0x00,
;	0x00, 0x00, 0x00, 0x00, 0x00,
;	0x00, 0x00, 0x00, 0x00, 0x00,
;	0x00, 0x00, 0x00, 0x00, 0x00,
;	0x00, 0x00, 0x00, 0x00, 0x00,
;	   0x7F, 0x01, 0x01, 0x01, 0x03 ,  // Ã
;	0x00, 0x00, 0x00, 0x00, 0x00,
;	0x00, 0x00, 0x00, 0x00, 0x00,
;	    0x7F, 0x49, 0x49, 0x49, 0x49 ,  // Å
;	0x00, 0x00, 0x00, 0x00, 0x00,
;	     0x3E, 0x49, 0x49, 0x41, 0x22 , // ª
;	0x00, 0x00, 0x00, 0x00, 0x00,
;	0x00, 0x00, 0x00, 0x00, 0x00,
;	0x00, 0x00, 0x00, 0x00, 0x00,
;	0x00, 0x00, 0x00, 0x00, 0x00,
;	     0x00, 0x43, 0x7E, 0x43, 0x00,   // ¯
;	0x00, 0x00, 0x00, 0x00, 0x00,
;	0x00, 0x00, 0x00, 0x00, 0x00,
;	     0x00, 0x41, 0x7F, 0x41, 0x00 , // ²
;	     0x00, 0x44, 0x7d, 0x40, 0x00 , // ³
;	     0x7C, 0x04, 0x04, 0x04, 0x0C ,  // ã
;	0x00, 0x00, 0x00, 0x00, 0x00,
;	0x00, 0x00, 0x00, 0x00, 0x00,
;	0x00, 0x00, 0x00, 0x00, 0x00,
;	     0x38, 0x54, 0x54, 0x54, 0x08 ,  // å
;	0x00, 0x00, 0x00, 0x00, 0x00,
;	     0x38, 0x54, 0x54, 0x44, 0x28 , // º
;	0x00, 0x00, 0x00, 0x00, 0x00,
;	0x00, 0x00, 0x00, 0x00, 0x00,
;	0x00, 0x00, 0x00, 0x00, 0x00,
;	0x00, 0x00, 0x00, 0x00, 0x00,
;     0x00, 0x45, 0x7C, 0x41, 0x00 , // ¿
;	 0x7E, 0x11, 0x11, 0x11, 0x7E ,  // À
;     0x7F, 0x49, 0x49, 0x49, 0x33 ,  // Á
;     0x7F, 0x49, 0x49, 0x49, 0x36 ,  // Â
;     0x7F, 0x01, 0x01, 0x01, 0x03 ,  // Ã
;     0xE0, 0x51, 0x4F, 0x41, 0xFF ,  // Ä
;     0x7F, 0x49, 0x49, 0x49, 0x49 ,  // Å
;     0x77, 0x08, 0x7F, 0x08, 0x77 ,  // Æ
;     0x49, 0x49, 0x49, 0x49, 0x36 ,  // Ç
;     0x7F, 0x10, 0x08, 0x04, 0x7F ,  // È
;     0x7C, 0x21, 0x12, 0x09, 0x7C ,  // É
;     0x7F, 0x08, 0x14, 0x22, 0x41 ,  // Ê
;     0x20, 0x41, 0x3F, 0x01, 0x7F ,  // Ë
;     0x7F, 0x02, 0x0C, 0x02, 0x7F ,  // Ì
;     0x7F, 0x08, 0x08, 0x08, 0x7F ,  // Í
;     0x3E, 0x41, 0x41, 0x41, 0x3E ,  // Î
;     0x7F, 0x01, 0x01, 0x01, 0x7F ,  // Ï
;     0x7F, 0x09, 0x09, 0x09, 0x06 ,  // Ð
;     0x3E, 0x41, 0x41, 0x41, 0x22 ,  // Ñ
;     0x01, 0x01, 0x7F, 0x01, 0x01 ,  // Ò
;     0x27, 0x48, 0x48, 0x48, 0x3F ,  // Ó
;     0x1C, 0x22, 0x7F, 0x22, 0x1C ,  // Ô
;     0x63, 0x14, 0x08, 0x14, 0x63 ,  // Õ
;     0x7F, 0x40, 0x40, 0x40, 0xFF ,  // Ö
;     0x07, 0x08, 0x08, 0x08, 0x7F ,  // ×
;     0x7F, 0x40, 0x7F, 0x40, 0x7F ,  // Ø
;     0x7F, 0x40, 0x7F, 0x40, 0xFF ,  // Ù
;     0x01, 0x7F, 0x48, 0x48, 0x30 ,  // Ú
;     0x7F, 0x48, 0x30, 0x00, 0x7F ,  // Û
;     0x7F, 0x48, 0x48, 0x30, 0x00 ,  // Ü
;     0x22, 0x41, 0x49, 0x49, 0x3E ,  // Ý
;     0x7F, 0x08, 0x3E, 0x41, 0x3E ,  // Þ
;     0x46, 0x29, 0x19, 0x09, 0x7F ,  // ß
;     0x20, 0x54, 0x54, 0x54, 0x78 ,  // à
;     0x3C, 0x4A, 0x4A, 0x49, 0x31 ,  // á
;     0x7C, 0x54, 0x54, 0x28, 0x00 ,  // â
;     0x7C, 0x04, 0x04, 0x04, 0x0C ,  // ã
;     0xE0, 0x54, 0x4C, 0x44, 0xFC ,  // ä
;     0x38, 0x54, 0x54, 0x54, 0x08 ,  // å
;     0x6C, 0x10, 0x7C, 0x10, 0x6C ,  // æ
;     0x44, 0x44, 0x54, 0x54, 0x28 ,  // ç
;     0x7C, 0x20, 0x10, 0x08, 0x7C ,  // è
;     0x78, 0x42, 0x24, 0x12, 0x78 ,  // é
;     0x7C, 0x10, 0x28, 0x44, 0x00 ,  // ê
;     0x20, 0x44, 0x3C, 0x04, 0x7C ,  // ë
;     0x7C, 0x08, 0x10, 0x08, 0x7C ,  // ì
;     0x7C, 0x10, 0x10, 0x10, 0x7C ,  // í
;     0x38, 0x44, 0x44, 0x44, 0x38 ,  // î
;     0x7C, 0x04, 0x04, 0x04, 0x7C ,  // ï
;     0x7C, 0x14, 0x14, 0x14, 0x08 ,  // ð
;     0x38, 0x44, 0x44, 0x44, 0x44 ,  // ñ
;     0x04, 0x04, 0x7C, 0x04, 0x04 ,  // ò
;     0x0C, 0x50, 0x50, 0x50, 0x3C ,  // ó
;     0x18, 0x24, 0x7E, 0x24, 0x18 ,  // ô
;     0x44, 0x28, 0x10, 0x28, 0x44 ,  // õ
;     0x7C, 0x40, 0x40, 0x40, 0xFC ,  // ö
;     0x0C, 0x10, 0x10, 0x10, 0x7C ,  // ÷
;     0x7C, 0x40, 0x7C, 0x40, 0x7C ,  // ø
;     0x7C, 0x40, 0x7C, 0x40, 0xFC ,  // ù
;     0x04, 0x7C, 0x50, 0x50, 0x20 ,  // ú
;     0x7C, 0x50, 0x20, 0x00, 0x7C ,  // û
;     0x7C, 0x50, 0x50, 0x20, 0x00 ,  // ü
;     0x28, 0x44, 0x54, 0x54, 0x38 ,  // ý
;     0x7C, 0x10, 0x38, 0x44, 0x38 ,  // þ
;     0x08, 0x54, 0x34, 0x14, 0x7C   // ÿ
;};
;
;
;
;
;unsigned char buffer[1024] =  {
;0x00, 0x00, 0x00, 0x00, 0x00, 0x00, 0x00, 0x00, 0x00, 0x00, 0x00, 0x00, 0x00, 0x00, 0x00, 0x00,
;0x00, 0x00, 0x00, 0x00, 0x00, 0x00, 0x00, 0x00, 0x00, 0x00, 0x00, 0x00, 0x00, 0x00, 0x00, 0x00,
;0x00, 0x00, 0x00, 0x00, 0x00, 0x00, 0x00, 0x00, 0x00, 0x00, 0x00, 0x00, 0x00, 0x00, 0x00, 0x00,
;0x00, 0x00, 0x00, 0x00, 0x00, 0x00, 0x00, 0x00, 0x00, 0x00, 0x00, 0x00, 0x00, 0x00, 0x00, 0x80,
;0x80, 0x80, 0x00, 0x00, 0x00, 0x00, 0x00, 0x00, 0x00, 0x00, 0x00, 0x00, 0x00, 0x00, 0x00, 0x00,
;0x00, 0x80, 0x80, 0xC0, 0xC0, 0x00, 0x00, 0x00, 0x00, 0x00, 0x00, 0x00, 0x00, 0x00, 0x00, 0x00,
;0x00, 0x00, 0x00, 0x00, 0x00, 0x00, 0x00, 0x00, 0x00, 0x00, 0x00, 0x00, 0x00, 0x00, 0x00, 0x00,
;0x00, 0x00, 0x00, 0x00, 0x00, 0x00, 0x00, 0x00, 0x00, 0x00, 0x00, 0x00, 0x00, 0x00, 0x00, 0x00,
;0x00, 0x00, 0x00, 0x00, 0x00, 0x00, 0x00, 0x00, 0x00, 0x00, 0x00, 0x00, 0x00, 0x00, 0x00, 0x00,
;0x00, 0x00, 0x00, 0x00, 0x80, 0xC0, 0xE0, 0xF0, 0xF8, 0xFC, 0xF8, 0xE0, 0x00, 0x00, 0x00, 0x00,
;0x00, 0x00, 0x00, 0x00, 0x00, 0x00, 0x00, 0x00, 0x00, 0x00, 0x00, 0x00, 0x00, 0x80, 0x80, 0x80,
;0x80, 0x80, 0x00, 0x80, 0x80, 0x00, 0x00, 0x00, 0x00, 0x80, 0x80, 0x80, 0x80, 0x80, 0x00, 0xFF,
;0xFF, 0xFF, 0x00, 0x00, 0x00, 0x00, 0x80, 0x80, 0x80, 0x80, 0x00, 0x00, 0x80, 0x80, 0x00, 0x00,
;0x80, 0xFF, 0xFF, 0x80, 0x80, 0x00, 0x80, 0x80, 0x00, 0x80, 0x80, 0x80, 0x80, 0x00, 0x80, 0x80,
;0x00, 0x00, 0x00, 0x00, 0x00, 0x80, 0x80, 0x00, 0x00, 0x8C, 0x8E, 0x84, 0x00, 0x00, 0x80, 0xF8,
;0xF8, 0xF8, 0x80, 0x00, 0x00, 0x00, 0x00, 0x00, 0x00, 0x00, 0x00, 0x00, 0x00, 0x00, 0x00, 0x00,
;0xF0, 0xF0, 0xF0, 0xF0, 0xF0, 0xF0, 0xF0, 0xF0, 0xF0, 0xF0, 0xF0, 0xF0, 0xE0, 0xE0, 0xC0, 0x80,
;0x00, 0xE0, 0xFC, 0xFE, 0xFF, 0xFF, 0xFF, 0x7F, 0xFF, 0xFF, 0xFF, 0xFF, 0xFF, 0x00, 0x00, 0x00,
;0x00, 0x00, 0x00, 0x00, 0x00, 0x00, 0x00, 0x00, 0x00, 0x00, 0x00, 0xFE, 0xFF, 0xC7, 0x01, 0x01,
;0x01, 0x01, 0x83, 0xFF, 0xFF, 0x00, 0x00, 0x7C, 0xFE, 0xC7, 0x01, 0x01, 0x01, 0x01, 0x83, 0xFF,
;0xFF, 0xFF, 0x00, 0x38, 0xFE, 0xC7, 0x83, 0x01, 0x01, 0x01, 0x83, 0xC7, 0xFF, 0xFF, 0x00, 0x00,
;0x01, 0xFF, 0xFF, 0x01, 0x01, 0x00, 0xFF, 0xFF, 0x07, 0x01, 0x01, 0x01, 0x00, 0x00, 0x7F, 0xFF,
;0x80, 0x00, 0x00, 0x00, 0xFF, 0xFF, 0x7F, 0x00, 0x00, 0xFF, 0xFF, 0xFF, 0x00, 0x00, 0x01, 0xFF,
;0xFF, 0xFF, 0x01, 0x00, 0x00, 0x00, 0x00, 0x00, 0x00, 0x00, 0x00, 0x00, 0x00, 0x00, 0x00, 0x00,
;0x03, 0x0F, 0x3F, 0x7F, 0x7F, 0xFF, 0xFF, 0xFF, 0xFF, 0xFF, 0xFF, 0xFF, 0xE7, 0xC7, 0xC7, 0x8F,
;0x8F, 0x9F, 0xBF, 0xFF, 0xFF, 0xC3, 0xC0, 0xF0, 0xFF, 0xFF, 0xFF, 0xFF, 0xFF, 0xFC, 0xFC, 0xFC,
;0xFC, 0xFC, 0xFC, 0xFC, 0xFC, 0xF8, 0xF8, 0xF0, 0xF0, 0xE0, 0xC0, 0x00, 0x01, 0x03, 0x03, 0x03,
;0x03, 0x03, 0x01, 0x03, 0x03, 0x00, 0x00, 0x00, 0x00, 0x01, 0x03, 0x03, 0x03, 0x03, 0x01, 0x01,
;0x03, 0x01, 0x00, 0x00, 0x00, 0x01, 0x03, 0x03, 0x03, 0x03, 0x01, 0x01, 0x03, 0x03, 0x00, 0x00,
;0x00, 0x03, 0x03, 0x00, 0x00, 0x00, 0x03, 0x03, 0x00, 0x00, 0x00, 0x00, 0x00, 0x00, 0x00, 0x01,
;0x03, 0x03, 0x03, 0x03, 0x03, 0x01, 0x00, 0x00, 0x00, 0x01, 0x03, 0x01, 0x00, 0x00, 0x00, 0x03,
;0x03, 0x01, 0x00, 0x00, 0x00, 0x00, 0x00, 0x00, 0x00, 0x00, 0x00, 0x00, 0x00, 0x00, 0x00, 0x00,
;0x00, 0x00, 0x00, 0x80, 0xC0, 0xE0, 0xF0, 0xF9, 0xFF, 0xFF, 0xFF, 0xFF, 0xFF, 0x3F, 0x1F, 0x0F,
;0x87, 0xC7, 0xF7, 0xFF, 0xFF, 0x1F, 0x1F, 0x3D, 0xFC, 0xF8, 0xF8, 0xF8, 0xF8, 0x7C, 0x7D, 0xFF,
;0xFF, 0xFF, 0xFF, 0xFF, 0xFF, 0xFF, 0xFF, 0x7F, 0x3F, 0x0F, 0x07, 0x00, 0x30, 0x30, 0x00, 0x00,
;0x00, 0x00, 0x00, 0x00, 0x00, 0x00, 0x00, 0x00, 0x00, 0x00, 0x00, 0x00, 0x00, 0x00, 0x00, 0x00,
;0x00, 0x00, 0x00, 0x00, 0xFE, 0xFE, 0xFC, 0x00, 0x00, 0x00, 0x00, 0x00, 0x00, 0x00, 0x00, 0x00,
;0x00, 0x00, 0x00, 0x00, 0x00, 0x00, 0x00, 0x00, 0x00, 0x00, 0x00, 0x00, 0x00, 0xE0, 0xC0, 0x00,
;0x00, 0x00, 0x00, 0x00, 0x00, 0x00, 0x00, 0x00, 0x00, 0x00, 0x30, 0x30, 0x00, 0x00, 0x00, 0x00,
;0x00, 0x00, 0x00, 0x00, 0x00, 0x00, 0x00, 0x00, 0x00, 0x00, 0x00, 0x00, 0x00, 0x00, 0x00, 0x00,
;0x00, 0xC0, 0xFE, 0xFF, 0xFF, 0xFF, 0xFF, 0xFF, 0xFF, 0xFF, 0xFF, 0xFF, 0x7F, 0x7F, 0x3F, 0x1F,
;0x0F, 0x07, 0x1F, 0x7F, 0xFF, 0xFF, 0xF8, 0xF8, 0xFF, 0xFF, 0xFF, 0xFF, 0xFF, 0xFE, 0xF8, 0xE0,
;0x00, 0x00, 0x00, 0x01, 0x00, 0x00, 0x00, 0x00, 0x00, 0x00, 0x00, 0x00, 0xFE, 0xFE, 0x00, 0x00,
;0x00, 0xFC, 0xFE, 0xFC, 0x0C, 0x06, 0x06, 0x0E, 0xFC, 0xF8, 0x00, 0x00, 0xF0, 0xF8, 0x1C, 0x0E,
;0x06, 0x06, 0x06, 0x0C, 0xFF, 0xFF, 0xFF, 0x00, 0x00, 0xFE, 0xFE, 0x00, 0x00, 0x00, 0x00, 0xFC,
;0xFE, 0xFC, 0x00, 0x18, 0x3C, 0x7E, 0x66, 0xE6, 0xCE, 0x84, 0x00, 0x00, 0x06, 0xFF, 0xFF, 0x06,
;0x06, 0xFC, 0xFE, 0xFC, 0x0C, 0x06, 0x06, 0x06, 0x00, 0x00, 0xFE, 0xFE, 0x00, 0x00, 0xC0, 0xF8,
;0xFC, 0x4E, 0x46, 0x46, 0x46, 0x4E, 0x7C, 0x78, 0x40, 0x18, 0x3C, 0x76, 0xE6, 0xCE, 0xCC, 0x80,
;0x00, 0x00, 0x00, 0x00, 0x00, 0x00, 0x00, 0x00, 0x00, 0x00, 0x00, 0x00, 0x00, 0x00, 0x00, 0x00,
;0x00, 0x00, 0x00, 0x00, 0x01, 0x07, 0x0F, 0x1F, 0x1F, 0x3F, 0x3F, 0x3F, 0x3F, 0x1F, 0x0F, 0x03,
;0x00, 0x00, 0x00, 0x00, 0x00, 0x00, 0x00, 0x00, 0x00, 0x00, 0x00, 0x00, 0x0F, 0x0F, 0x00, 0x00,
;0x00, 0x0F, 0x0F, 0x0F, 0x00, 0x00, 0x00, 0x00, 0x0F, 0x0F, 0x00, 0x00, 0x03, 0x07, 0x0E, 0x0C,
;0x18, 0x18, 0x0C, 0x06, 0x0F, 0x0F, 0x0F, 0x00, 0x00, 0x01, 0x0F, 0x0E, 0x0C, 0x18, 0x0C, 0x0F,
;0x07, 0x01, 0x00, 0x04, 0x0E, 0x0C, 0x18, 0x0C, 0x0F, 0x07, 0x00, 0x00, 0x00, 0x0F, 0x0F, 0x00,
;0x00, 0x0F, 0x0F, 0x0F, 0x00, 0x00, 0x00, 0x00, 0x00, 0x00, 0x0F, 0x0F, 0x00, 0x00, 0x00, 0x07,
;0x07, 0x0C, 0x0C, 0x18, 0x1C, 0x0C, 0x06, 0x06, 0x00, 0x04, 0x0E, 0x0C, 0x18, 0x0C, 0x0F, 0x07,
;0x00, 0x00, 0x00, 0x00, 0x00, 0x00, 0x00, 0x00, 0x00, 0x00, 0x00, 0x00, 0x00, 0x00, 0x00, 0x00,
;0x00, 0x00, 0x00, 0x00, 0x00, 0x00, 0x00, 0x00, 0x00, 0x00, 0x00, 0x00, 0x00, 0x00, 0x00, 0x00,
;0x00, 0x00, 0x00, 0x00, 0x00, 0x00, 0x00, 0x00, 0x00, 0x00, 0x00, 0x00, 0x00, 0x00, 0x00, 0x00,
;0x00, 0x00, 0x00, 0x00, 0x00, 0x00, 0x00, 0x00, 0x00, 0x00, 0x00, 0x00, 0x00, 0x00, 0x00, 0x00,
;0x00, 0x00, 0x00, 0x00, 0x00, 0x00, 0x00, 0x00, 0x00, 0x00, 0x00, 0x00, 0x00, 0x00, 0x00, 0x00,
;0x00, 0x00, 0x00, 0x00, 0x00, 0x00, 0x00, 0x00, 0x00, 0x00, 0x00, 0x00, 0x00, 0x00, 0x00, 0x00,
;0x00, 0x00, 0x00, 0x00, 0x00, 0x00, 0x00, 0x00, 0x00, 0x00, 0x00, 0x00, 0x00, 0x00, 0x00, 0x00,
;0x00, 0x00, 0x00, 0x00, 0x00, 0x00, 0x00, 0x00, 0x00, 0x00, 0x00, 0x00, 0x00, 0x00, 0x00, 0x00
;};

	.DSEG
;
;
;
;
;
;void clearDisplay(void)
; 0000 001B {

	.CSEG
_clearDisplay:
; .FSTART _clearDisplay
;int i0;
;    for(i0=0; i0<1024;i0++) buffer[i0] = 0;
	CALL SUBOPT_0x0
;	i0 -> R16,R17
_0x5:
	__CPWRN 16,17,1024
	BRGE _0x6
	LDI  R26,LOW(_buffer)
	LDI  R27,HIGH(_buffer)
	ADD  R26,R16
	ADC  R27,R17
	LDI  R30,LOW(0)
	ST   X,R30
	__ADDWRN 16,17,1
	RJMP _0x5
_0x6:
	LD   R16,Y+
	LD   R17,Y+
	RET
; .FEND
;
;
;
;
;void drawPixel(int x0, int y0, int color) {
_drawPixel:
; .FSTART _drawPixel
;  if ((x0 < 0) || (x0 >= 128) || (y0 < 0) || (y0 >= 64))
	ST   -Y,R27
	ST   -Y,R26
;	x0 -> Y+4
;	y0 -> Y+2
;	color -> Y+0
	LDD  R26,Y+5
	TST  R26
	BRMI _0x8
	LDD  R26,Y+4
	LDD  R27,Y+4+1
	CPI  R26,LOW(0x80)
	LDI  R30,HIGH(0x80)
	CPC  R27,R30
	BRGE _0x8
	LDD  R26,Y+3
	TST  R26
	BRMI _0x8
	LDD  R26,Y+2
	LDD  R27,Y+2+1
	CPI  R26,LOW(0x40)
	LDI  R30,HIGH(0x40)
	CPC  R27,R30
	BRLT _0x7
_0x8:
;    return;
	RJMP _0x2060003
;
;    x0 = 128 - x0 - 1;
_0x7:
	LDD  R26,Y+4
	LDD  R27,Y+4+1
	LDI  R30,LOW(128)
	LDI  R31,HIGH(128)
	SUB  R30,R26
	SBC  R31,R27
	SBIW R30,1
	STD  Y+4,R30
	STD  Y+4+1,R31
;    y0 = 64 - y0 - 1;
	LDD  R26,Y+2
	LDD  R27,Y+2+1
	LDI  R30,LOW(64)
	LDI  R31,HIGH(64)
	SUB  R30,R26
	SBC  R31,R27
	SBIW R30,1
	STD  Y+2,R30
	STD  Y+2+1,R31
;
;  // x is which column
;    switch (color)
	LD   R30,Y
	LDD  R31,Y+1
;    {
;      case 1:   buffer[x0+ (y0/8)*128] |=  (1 << (y0&7)); break;
	CPI  R30,LOW(0x1)
	LDI  R26,HIGH(0x1)
	CPC  R31,R26
	BRNE _0xD
	CALL SUBOPT_0x1
	OR   R30,R1
	RJMP _0x61
;      case 0:   buffer[x0+ (y0/8)*128] &= ~(1 << (y0&7)); break;
_0xD:
	SBIW R30,0
	BRNE _0xE
	CALL SUBOPT_0x1
	COM  R30
	AND  R30,R1
	RJMP _0x61
;      case 2:  buffer[x0+ (y0/8)*128] ^=  (1 << (y0&7)); break;
_0xE:
	CPI  R30,LOW(0x2)
	LDI  R26,HIGH(0x2)
	CPC  R31,R26
	BRNE _0xC
	CALL SUBOPT_0x1
	EOR  R30,R1
_0x61:
	MOVW R26,R22
	ST   X,R30
;    }
_0xC:
;
;}
_0x2060003:
	ADIW R28,6
	RET
; .FEND
;
;void drawChar(int x0, int y0, char c)
;{
_drawChar:
; .FSTART _drawChar
;int i0;
;for(i0 = 0 ;i0< 5;i0++) buffer[x0*6+y0*128+i0] = font[c*5+i0];
	ST   -Y,R26
	CALL SUBOPT_0x0
;	x0 -> Y+5
;	y0 -> Y+3
;	c -> Y+2
;	i0 -> R16,R17
_0x11:
	__CPWRN 16,17,5
	BRGE _0x12
	LDD  R30,Y+5
	LDD  R31,Y+5+1
	LDI  R26,LOW(6)
	LDI  R27,HIGH(6)
	CALL __MULW12
	MOVW R26,R30
	LDD  R30,Y+3
	LDD  R31,Y+3+1
	CALL __LSLW3
	CALL __LSLW4
	ADD  R30,R26
	ADC  R31,R27
	ADD  R30,R16
	ADC  R31,R17
	SUBI R30,LOW(-_buffer)
	SBCI R31,HIGH(-_buffer)
	MOVW R22,R30
	LDD  R26,Y+2
	LDI  R30,LOW(5)
	MUL  R30,R26
	MOVW R30,R0
	ADD  R30,R16
	ADC  R31,R17
	SUBI R30,LOW(-_font*2)
	SBCI R31,HIGH(-_font*2)
	LPM  R30,Z
	MOVW R26,R22
	ST   X,R30
	__ADDWRN 16,17,1
	RJMP _0x11
_0x12:
	LDD  R17,Y+1
	LDD  R16,Y+0
	ADIW R28,7
	RET
; .FEND
;
;void drawString(int x0, int y0, char * str, int len)
;{
_drawString:
; .FSTART _drawString
;int i0;
;    for (i0 = 0; i0<len; i0++) drawChar(x0+i0,y0, str[i0]) ;
	ST   -Y,R27
	ST   -Y,R26
	CALL SUBOPT_0x0
;	x0 -> Y+8
;	y0 -> Y+6
;	*str -> Y+4
;	len -> Y+2
;	i0 -> R16,R17
_0x14:
	LDD  R30,Y+2
	LDD  R31,Y+2+1
	CP   R16,R30
	CPC  R17,R31
	BRGE _0x15
	MOVW R30,R16
	LDD  R26,Y+8
	LDD  R27,Y+8+1
	ADD  R30,R26
	ADC  R31,R27
	ST   -Y,R31
	ST   -Y,R30
	LDD  R30,Y+8
	LDD  R31,Y+8+1
	ST   -Y,R31
	ST   -Y,R30
	MOVW R30,R16
	LDD  R26,Y+8
	LDD  R27,Y+8+1
	ADD  R26,R30
	ADC  R27,R31
	LD   R26,X
	RCALL _drawChar
	__ADDWRN 16,17,1
	RJMP _0x14
_0x15:
	LDD  R17,Y+1
	LDD  R16,Y+0
	ADIW R28,10
	RET
; .FEND
;
;void drawLine(int x1, int y1, int x2, int y2, int color)
;{
_drawLine:
; .FSTART _drawLine
;int kx,ky;
;int znx, zny;
;if (x2 > 127) x2 = 127;
	ST   -Y,R27
	ST   -Y,R26
	SBIW R28,2
	CALL __SAVELOCR6
;	x1 -> Y+16
;	y1 -> Y+14
;	x2 -> Y+12
;	y2 -> Y+10
;	color -> Y+8
;	kx -> R16,R17
;	ky -> R18,R19
;	znx -> R20,R21
;	zny -> Y+6
	LDD  R26,Y+12
	LDD  R27,Y+12+1
	CPI  R26,LOW(0x80)
	LDI  R30,HIGH(0x80)
	CPC  R27,R30
	BRLT _0x16
	LDI  R30,LOW(127)
	LDI  R31,HIGH(127)
	STD  Y+12,R30
	STD  Y+12+1,R31
;if (x2 < 0) x2 = 0;
_0x16:
	LDD  R26,Y+13
	TST  R26
	BRPL _0x17
	LDI  R30,LOW(0)
	STD  Y+12,R30
	STD  Y+12+1,R30
;if (x1 > 127) x1 = 127 ;
_0x17:
	LDD  R26,Y+16
	LDD  R27,Y+16+1
	CPI  R26,LOW(0x80)
	LDI  R30,HIGH(0x80)
	CPC  R27,R30
	BRLT _0x18
	LDI  R30,LOW(127)
	LDI  R31,HIGH(127)
	STD  Y+16,R30
	STD  Y+16+1,R31
;if (x1 < 0) x1 = 0 ;
_0x18:
	LDD  R26,Y+17
	TST  R26
	BRPL _0x19
	LDI  R30,LOW(0)
	STD  Y+16,R30
	STD  Y+16+1,R30
;if (y2 > 63) y2 = 63;
_0x19:
	LDD  R26,Y+10
	LDD  R27,Y+10+1
	CPI  R26,LOW(0x40)
	LDI  R30,HIGH(0x40)
	CPC  R27,R30
	BRLT _0x1A
	LDI  R30,LOW(63)
	LDI  R31,HIGH(63)
	STD  Y+10,R30
	STD  Y+10+1,R31
;if (y2 < 0) y2 = 0;
_0x1A:
	LDD  R26,Y+11
	TST  R26
	BRPL _0x1B
	LDI  R30,LOW(0)
	STD  Y+10,R30
	STD  Y+10+1,R30
;if (y1 > 63) y1 = 63;
_0x1B:
	LDD  R26,Y+14
	LDD  R27,Y+14+1
	CPI  R26,LOW(0x40)
	LDI  R30,HIGH(0x40)
	CPC  R27,R30
	BRLT _0x1C
	LDI  R30,LOW(63)
	LDI  R31,HIGH(63)
	STD  Y+14,R30
	STD  Y+14+1,R31
;if (y1 < 0) y1 = 0;
_0x1C:
	LDD  R26,Y+15
	TST  R26
	BRPL _0x1D
	LDI  R30,LOW(0)
	STD  Y+14,R30
	STD  Y+14+1,R30
;    if (x1 > x2) znx = -1; else znx = 1;
_0x1D:
	LDD  R30,Y+12
	LDD  R31,Y+12+1
	LDD  R26,Y+16
	LDD  R27,Y+16+1
	CP   R30,R26
	CPC  R31,R27
	BRGE _0x1E
	__GETWRN 20,21,-1
	RJMP _0x1F
_0x1E:
	__GETWRN 20,21,1
;    if (y1 > y2) zny = -1; else zny = 1;
_0x1F:
	LDD  R30,Y+10
	LDD  R31,Y+10+1
	LDD  R26,Y+14
	LDD  R27,Y+14+1
	CP   R30,R26
	CPC  R31,R27
	BRGE _0x20
	LDI  R30,LOW(65535)
	LDI  R31,HIGH(65535)
	RJMP _0x62
_0x20:
	LDI  R30,LOW(1)
	LDI  R31,HIGH(1)
_0x62:
	STD  Y+6,R30
	STD  Y+6+1,R31
;    kx = ((x2 - x1)*znx);
	CALL SUBOPT_0x2
;    ky = ((y2 - y1)*zny);
;    drawPixel(x1,y1,color);
;    while ((kx + ky) > 0)
_0x22:
	MOVW R26,R18
	ADD  R26,R16
	ADC  R27,R17
	CALL __CPW02
	BRGE _0x24
;    {
;        if (kx > 0) if (ky / kx <= 1) x1 = x1 + znx;
	CLR  R0
	CP   R0,R16
	CPC  R0,R17
	BRGE _0x25
	MOVW R30,R16
	MOVW R26,R18
	CALL __DIVW21
	SBIW R30,2
	BRGE _0x26
	MOVW R30,R20
	LDD  R26,Y+16
	LDD  R27,Y+16+1
	ADD  R30,R26
	ADC  R31,R27
	STD  Y+16,R30
	STD  Y+16+1,R31
;        if (ky > 0) if (kx / ky <= 1) y1 = y1 + zny;
_0x26:
_0x25:
	CLR  R0
	CP   R0,R18
	CPC  R0,R19
	BRGE _0x27
	MOVW R30,R18
	MOVW R26,R16
	CALL __DIVW21
	SBIW R30,2
	BRGE _0x28
	LDD  R30,Y+6
	LDD  R31,Y+6+1
	LDD  R26,Y+14
	LDD  R27,Y+14+1
	ADD  R30,R26
	ADC  R31,R27
	STD  Y+14,R30
	STD  Y+14+1,R31
;        kx = ((x2 - x1)*znx);
_0x28:
_0x27:
	CALL SUBOPT_0x2
;        ky = ((y2 - y1)*zny);
;        drawPixel(x1,y1,color);
;    }
	RJMP _0x22
_0x24:
;
;}
	CALL __LOADLOCR6
	ADIW R28,18
	RET
; .FEND
;// Declare your global variables here
;int i,a,n,time, met, x, y, x0 = 0, y0 = 32, maxr, maxl, kof;

	.DSEG
;unsigned char rx_data[1],bufer[129], tx_data0[50] = {0x80, 0xAE, 0x80, 0xD5,0x80, 0x80,0x80, 0xA8,0x80, 0x3F,0x80, 0xD3,
;0x80, 0x0,0x80, 0x40,0x80, 0x8D,0x80, 0x14,0x80, 0x20,0x80, 0x00,0x80,  0xA1, 0x80, 0xC8,0x80,
;0xDA,0x80, 0x12,0x80, 0x81,0x80, 0xCF,0x80, 0xD9,0x80, 0xF1,0x80, 0xDB,0x80, 0x40,0x80, 0xA4,
;0x80, 0xA6, 0x80, 0xAF };
;// Voltage Reference: AVCC pin
;#define ADC_VREF_TYPE ((0<<REFS1) | (1<<REFS0) | (0<<ADLAR))
;
;// Read the AD conversion result
;unsigned int read_adc(unsigned char adc_input)
; 0000 0027 {

	.CSEG
_read_adc:
; .FSTART _read_adc
; 0000 0028 ADMUX=adc_input | ADC_VREF_TYPE;
	ST   -Y,R26
;	adc_input -> Y+0
	LD   R30,Y
	ORI  R30,0x40
	STS  124,R30
; 0000 0029 // Delay needed for the stabilization of the ADC input voltage
; 0000 002A delay_us(10);
	__DELAY_USB 27
; 0000 002B // Start the AD conversion
; 0000 002C ADCSRA|=(1<<ADSC);
	LDS  R30,122
	ORI  R30,0x40
	STS  122,R30
; 0000 002D // Wait for the AD conversion to complete
; 0000 002E while ((ADCSRA & (1<<ADIF))==0);
_0x2B:
	LDS  R30,122
	ANDI R30,LOW(0x10)
	BREQ _0x2B
; 0000 002F ADCSRA|=(1<<ADIF);
	LDS  R30,122
	ORI  R30,0x10
	STS  122,R30
; 0000 0030 return ADCW;
	LDS  R30,120
	LDS  R31,120+1
	ADIW R28,1
	RET
; 0000 0031 }
; .FEND
;
;
;// TWI functions
;#include <twi.h>
;
;void display(void)
; 0000 0038 {
_display:
; .FSTART _display
; 0000 0039     bufer[0] = 0x80;
	LDI  R30,LOW(128)
	STS  _bufer,R30
; 0000 003A     bufer[1] = 0x21;
	LDI  R30,LOW(33)
	__PUTB1MN _bufer,1
; 0000 003B     bufer[2] = 0x80;
	LDI  R30,LOW(128)
	__PUTB1MN _bufer,2
; 0000 003C     bufer[3] = 0;
	LDI  R30,LOW(0)
	__PUTB1MN _bufer,3
; 0000 003D     bufer[4] = 0x80;
	LDI  R30,LOW(128)
	__PUTB1MN _bufer,4
; 0000 003E     bufer[5] = 127;
	LDI  R30,LOW(127)
	__PUTB1MN _bufer,5
; 0000 003F     bufer[6] = 0x80;
	LDI  R30,LOW(128)
	__PUTB1MN _bufer,6
; 0000 0040     bufer[7] = 0x22;
	LDI  R30,LOW(34)
	__PUTB1MN _bufer,7
; 0000 0041     bufer[8] = 0x80;
	LDI  R30,LOW(128)
	__PUTB1MN _bufer,8
; 0000 0042     bufer[9] = 0;
	LDI  R30,LOW(0)
	__PUTB1MN _bufer,9
; 0000 0043     bufer[10] = 0x80;
	LDI  R30,LOW(128)
	__PUTB1MN _bufer,10
; 0000 0044     bufer[11] = 7  ;
	LDI  R30,LOW(7)
	__PUTB1MN _bufer,11
; 0000 0045     twi_master_trans(0x3C, bufer, 12, rx_data, 0) ;
	CALL SUBOPT_0x3
	LDI  R30,LOW(12)
	CALL SUBOPT_0x4
; 0000 0046 
; 0000 0047        for (i=0; i<1024; ) {
	CLR  R3
	CLR  R4
_0x2F:
	LDI  R30,LOW(1024)
	LDI  R31,HIGH(1024)
	CP   R3,R30
	CPC  R4,R31
	BRGE _0x30
; 0000 0048       // send a bunch of data in one xmission
; 0000 0049         bufer[0] = 0x40;
	LDI  R30,LOW(64)
	STS  _bufer,R30
; 0000 004A         for (n=0; n<128; n++) {
	CLR  R7
	CLR  R8
_0x32:
	LDI  R30,LOW(128)
	LDI  R31,HIGH(128)
	CP   R7,R30
	CPC  R8,R31
	BRGE _0x33
; 0000 004B         bufer[n+1] = buffer[i++];
	__GETW1R 7,8
	__ADDW1MN _bufer,1
	MOVW R26,R30
	__GETW1R 3,4
	ADIW R30,1
	__PUTW1R 3,4
	SBIW R30,1
	SUBI R30,LOW(-_buffer)
	SBCI R31,HIGH(-_buffer)
	LD   R30,Z
	ST   X,R30
; 0000 004C         }
	LDI  R30,LOW(1)
	LDI  R31,HIGH(1)
	__ADDWRR 7,8,30,31
	RJMP _0x32
_0x33:
; 0000 004D 
; 0000 004E         twi_master_trans(0x3C, bufer, 129, rx_data, 0) ;
	CALL SUBOPT_0x3
	LDI  R30,LOW(129)
	CALL SUBOPT_0x4
; 0000 004F     }
	RJMP _0x2F
_0x30:
; 0000 0050 }
	RET
; .FEND
;
;
;void main(void)
; 0000 0054 {
_main:
; .FSTART _main
; 0000 0055 // Declare your local variables here
; 0000 0056 // Crystal Oscillator division factor: 1
; 0000 0057 #pragma optsize-
; 0000 0058 CLKPR=(1<<CLKPCE);
	LDI  R30,LOW(128)
	STS  97,R30
; 0000 0059 CLKPR=(0<<CLKPCE) | (0<<CLKPS3) | (0<<CLKPS2) | (0<<CLKPS1) | (0<<CLKPS0);
	LDI  R30,LOW(0)
	STS  97,R30
; 0000 005A #ifdef _OPTIMIZE_SIZE_
; 0000 005B #pragma optsize+
; 0000 005C #endif
; 0000 005D 
; 0000 005E // Input/Output Ports initialization
; 0000 005F // Port B initialization
; 0000 0060 // Function: Bit7=In Bit6=In Bit5=In Bit4=In Bit3=In Bit2=In Bit1=In Bit0=In
; 0000 0061 DDRB=(0<<DDB7) | (0<<DDB6) | (0<<DDB5) | (0<<DDB4) | (3<<DDB3) | (0<<DDB2) | (0<<DDB1) | (0<<DDB0);
	LDI  R30,LOW(24)
	OUT  0x4,R30
; 0000 0062 // State: Bit7=T Bit6=T Bit5=T Bit4=T Bit3=T Bit2=T Bit1=T Bit0=T
; 0000 0063 PORTB=(0<<PORTB7) | (0<<PORTB6) | (0<<PORTB5) | (0<<PORTB4) | (0<<PORTB3) | (0<<PORTB2) | (0<<PORTB1) | (0<<PORTB0);
	LDI  R30,LOW(0)
	OUT  0x5,R30
; 0000 0064 
; 0000 0065 // Port C initialization
; 0000 0066 // Function: Bit6=In Bit5=In Bit4=In Bit3=In Bit2=In Bit1=In Bit0=In
; 0000 0067 DDRC=(0<<DDC6) | (0<<DDC5) | (0<<DDC4) | (0<<DDC3) | (0<<DDC2) | (0<<DDC1) | (0<<DDC0);
	OUT  0x7,R30
; 0000 0068 // State: Bit6=T Bit5=T Bit4=T Bit3=T Bit2=T Bit1=T Bit0=T
; 0000 0069 PORTC=(0<<PORTC6) | (0<<PORTC5) | (0<<PORTC4) | (1<<PORTC3) | (0<<PORTC2) | (0<<PORTC1) | (0<<PORTC0);
	LDI  R30,LOW(8)
	OUT  0x8,R30
; 0000 006A 
; 0000 006B // Port D initialization
; 0000 006C // Function: Bit7=In Bit6=In Bit5=In Bit4=In Bit3=In Bit2=In Bit1=In Bit0=In
; 0000 006D DDRD=(0<<DDD7) | (0<<DDD6) | (0<<DDD5) | (0<<DDD4) | (1<<DDD3) | (0<<DDD2) | (0<<DDD1) | (0<<DDD0);
	OUT  0xA,R30
; 0000 006E // State: Bit7=T Bit6=T Bit5=T Bit4=T Bit3=T Bit2=T Bit1=T Bit0=T
; 0000 006F PORTD=(0<<PORTD7) | (0<<PORTD6) | (0<<PORTD5) | (0<<PORTD4) | (0<<PORTD3) | (0<<PORTD2) | (0<<PORTD1) | (0<<PORTD0);
	LDI  R30,LOW(0)
	OUT  0xB,R30
; 0000 0070 
; 0000 0071 // Timer/Counter 0 initialization
; 0000 0072 // Clock source: System Clock
; 0000 0073 // Clock value: Timer 0 Stopped
; 0000 0074 // Mode: Normal top=0xFF
; 0000 0075 // OC0A output: Disconnected
; 0000 0076 // OC0B output: Disconnected
; 0000 0077 TCCR0A=(0<<COM0A1) | (0<<COM0A0) | (0<<COM0B1) | (0<<COM0B0) | (0<<WGM01) | (0<<WGM00);
	OUT  0x24,R30
; 0000 0078 TCCR0B=(0<<WGM02) | (0<<CS02) | (0<<CS01) | (0<<CS00);
	OUT  0x25,R30
; 0000 0079 TCNT0=0x00;
	OUT  0x26,R30
; 0000 007A OCR0A=0x00;
	OUT  0x27,R30
; 0000 007B OCR0B=0x00;
	OUT  0x28,R30
; 0000 007C 
; 0000 007D // Timer/Counter 1 initialization
; 0000 007E // Clock source: System Clock
; 0000 007F // Clock value: Timer1 Stopped
; 0000 0080 // Mode: Normal top=0xFFFF
; 0000 0081 // OC1A output: Disconnected
; 0000 0082 // OC1B output: Disconnected
; 0000 0083 // Noise Canceler: Off
; 0000 0084 // Input Capture on Falling Edge
; 0000 0085 // Timer1 Overflow Interrupt: Off
; 0000 0086 // Input Capture Interrupt: Off
; 0000 0087 // Compare A Match Interrupt: Off
; 0000 0088 // Compare B Match Interrupt: Off
; 0000 0089 TCCR1A=(0<<COM1A1) | (0<<COM1A0) | (0<<COM1B1) | (0<<COM1B0) | (0<<WGM11) | (0<<WGM10);
	STS  128,R30
; 0000 008A TCCR1B=(0<<ICNC1) | (0<<ICES1) | (0<<WGM13) | (0<<WGM12) | (0<<CS12) | (0<<CS11) | (0<<CS10);
	STS  129,R30
; 0000 008B TCNT1H=0x00;
	STS  133,R30
; 0000 008C TCNT1L=0x00;
	STS  132,R30
; 0000 008D ICR1H=0x00;
	STS  135,R30
; 0000 008E ICR1L=0x00;
	STS  134,R30
; 0000 008F OCR1AH=0x00;
	STS  137,R30
; 0000 0090 OCR1AL=0x00;
	STS  136,R30
; 0000 0091 OCR1BH=0x00;
	STS  139,R30
; 0000 0092 OCR1BL=0x00;
	STS  138,R30
; 0000 0093 
; 0000 0094 // Timer/Counter 2 initialization
; 0000 0095 // Clock source: System Clock
; 0000 0096 // Clock value: 16000,000 kHz
; 0000 0097 // Mode: Fast PWM top=0xFF
; 0000 0098 // OC2A output: Non-Inverted PWM
; 0000 0099 // OC2B output: Non-Inverted PWM
; 0000 009A // Timer Period: 0,016 ms
; 0000 009B // Output Pulse(s):
; 0000 009C // OC2A Period: 0,016 ms Width: 0 us
; 0000 009D // OC2B Period: 0,016 ms Width: 0 us
; 0000 009E ASSR=(0<<EXCLK) | (0<<AS2);
	STS  182,R30
; 0000 009F TCCR2A=(1<<COM2A1) | (0<<COM2A0) | (1<<COM2B1) | (0<<COM2B0) | (1<<WGM21) | (1<<WGM20);
	LDI  R30,LOW(163)
	STS  176,R30
; 0000 00A0 TCCR2B=(0<<WGM22) | (0<<CS22) | (0<<CS21) | (1<<CS20);
	LDI  R30,LOW(1)
	STS  177,R30
; 0000 00A1 TCNT2=0x00;
	LDI  R30,LOW(0)
	STS  178,R30
; 0000 00A2 OCR2A=0x00;
	CALL SUBOPT_0x5
; 0000 00A3 OCR2B=0x00;
; 0000 00A4 
; 0000 00A5 // Timer/Counter 0 Interrupt(s) initialization
; 0000 00A6 TIMSK0=(0<<OCIE0B) | (0<<OCIE0A) | (0<<TOIE0);
	LDI  R30,LOW(0)
	STS  110,R30
; 0000 00A7 
; 0000 00A8 // Timer/Counter 1 Interrupt(s) initialization
; 0000 00A9 TIMSK1=(0<<ICIE1) | (0<<OCIE1B) | (0<<OCIE1A) | (0<<TOIE1);
	STS  111,R30
; 0000 00AA 
; 0000 00AB // Timer/Counter 2 Interrupt(s) initialization
; 0000 00AC TIMSK2=(0<<OCIE2B) | (0<<OCIE2A) | (0<<TOIE2);
	STS  112,R30
; 0000 00AD 
; 0000 00AE // External Interrupt(s) initialization
; 0000 00AF // INT0: Off
; 0000 00B0 // INT1: Off
; 0000 00B1 // Interrupt on any change on pins PCINT0-7: Off
; 0000 00B2 // Interrupt on any change on pins PCINT8-14: Off
; 0000 00B3 // Interrupt on any change on pins PCINT16-23: Off
; 0000 00B4 EICRA=(0<<ISC11) | (0<<ISC10) | (0<<ISC01) | (0<<ISC00);
	STS  105,R30
; 0000 00B5 EIMSK=(0<<INT1) | (0<<INT0);
	OUT  0x1D,R30
; 0000 00B6 PCICR=(0<<PCIE2) | (0<<PCIE1) | (0<<PCIE0);
	STS  104,R30
; 0000 00B7 
; 0000 00B8 // USART initialization
; 0000 00B9 // USART disabled
; 0000 00BA UCSR0B=(0<<RXCIE0) | (0<<TXCIE0) | (0<<UDRIE0) | (0<<RXEN0) | (0<<TXEN0) | (0<<UCSZ02) | (0<<RXB80) | (0<<TXB80);
	STS  193,R30
; 0000 00BB 
; 0000 00BC // Analog Comparator initialization
; 0000 00BD // Analog Comparator: Off
; 0000 00BE // The Analog Comparator's positive input is
; 0000 00BF // connected to the AIN0 pin
; 0000 00C0 // The Analog Comparator's negative input is
; 0000 00C1 // connected to the AIN1 pin
; 0000 00C2 ACSR=(1<<ACD) | (0<<ACBG) | (0<<ACO) | (0<<ACI) | (0<<ACIE) | (0<<ACIC) | (0<<ACIS1) | (0<<ACIS0);
	LDI  R30,LOW(128)
	OUT  0x30,R30
; 0000 00C3 ADCSRB=(0<<ACME);
	LDI  R30,LOW(0)
	STS  123,R30
; 0000 00C4 // Digital input buffer on AIN0: On
; 0000 00C5 // Digital input buffer on AIN1: On
; 0000 00C6 DIDR1=(0<<AIN0D) | (0<<AIN1D);
	STS  127,R30
; 0000 00C7 
; 0000 00C8 // ADC initialization
; 0000 00C9 // ADC disabled
; 0000 00CA ADCSRA=(0<<ADEN) | (0<<ADSC) | (0<<ADATE) | (0<<ADIF) | (0<<ADIE) | (0<<ADPS2) | (0<<ADPS1) | (0<<ADPS0);
	STS  122,R30
; 0000 00CB 
; 0000 00CC // SPI initialization
; 0000 00CD // SPI disabled
; 0000 00CE SPCR=(0<<SPIE) | (0<<SPE) | (0<<DORD) | (0<<MSTR) | (0<<CPOL) | (0<<CPHA) | (0<<SPR1) | (0<<SPR0);
	OUT  0x2C,R30
; 0000 00CF 
; 0000 00D0 
; 0000 00D1 // ADC initialization
; 0000 00D2 // ADC Clock frequency: 1000,000 kHz
; 0000 00D3 // ADC Voltage Reference: AVCC pin
; 0000 00D4 // ADC Auto Trigger Source: ADC Stopped
; 0000 00D5 // Digital input buffers on ADC0: On, ADC1: On, ADC2: On, ADC3: On
; 0000 00D6 // ADC4: On, ADC5: On
; 0000 00D7 DIDR0=(0<<ADC5D) | (0<<ADC4D) | (0<<ADC3D) | (0<<ADC2D) | (0<<ADC1D) | (0<<ADC0D);
	STS  126,R30
; 0000 00D8 ADMUX=ADC_VREF_TYPE;
	LDI  R30,LOW(64)
	STS  124,R30
; 0000 00D9 ADCSRA=(1<<ADEN) | (0<<ADSC) | (0<<ADATE) | (0<<ADIF) | (0<<ADIE) | (0<<ADPS2) | (1<<ADPS1) | (1<<ADPS0);
	LDI  R30,LOW(131)
	STS  122,R30
; 0000 00DA ADCSRB=(0<<ADTS2) | (0<<ADTS1) | (0<<ADTS0);
	LDI  R30,LOW(0)
	STS  123,R30
; 0000 00DB 
; 0000 00DC 
; 0000 00DD // TWI initialization
; 0000 00DE // Mode: TWI Master
; 0000 00DF // Bit Rate: 400 kHz
; 0000 00E0 twi_master_init(400);
	LDI  R26,LOW(400)
	LDI  R27,HIGH(400)
	CALL _twi_master_init
; 0000 00E1 
; 0000 00E2 // Global enable interrupts
; 0000 00E3 #asm("sei")
	sei
; 0000 00E4 twi_master_trans(0x3C, tx_data0, 50, rx_data, 0);
	LDI  R30,LOW(60)
	ST   -Y,R30
	LDI  R30,LOW(_tx_data0)
	LDI  R31,HIGH(_tx_data0)
	ST   -Y,R31
	ST   -Y,R30
	LDI  R30,LOW(50)
	CALL SUBOPT_0x4
; 0000 00E5 time = 60;
	LDI  R30,LOW(60)
	LDI  R31,HIGH(60)
	__PUTW1R 9,10
; 0000 00E6 kof =  read_adc(3);
	LDI  R26,LOW(3)
	RCALL _read_adc
	STS  _kof,R30
	STS  _kof+1,R31
; 0000 00E7 met = kof/11;
	LDS  R26,_kof
	LDS  R27,_kof+1
	LDI  R30,LOW(11)
	LDI  R31,HIGH(11)
	CALL __DIVW21
	__PUTW1R 11,12
; 0000 00E8 kof = kof/7;
	LDS  R26,_kof
	LDS  R27,_kof+1
	LDI  R30,LOW(7)
	LDI  R31,HIGH(7)
	CALL __DIVW21
	STS  _kof,R30
	STS  _kof+1,R31
; 0000 00E9 while ( time  >0)
_0x34:
	CLR  R0
	CP   R0,R9
	CPC  R0,R10
	BRLT PC+2
	RJMP _0x36
; 0000 00EA {
; 0000 00EB     clearDisplay();
	RCALL _clearDisplay
; 0000 00EC     for(a = 63; a >= 0; a--)
	LDI  R30,LOW(63)
	LDI  R31,HIGH(63)
	__PUTW1R 5,6
_0x38:
	CLR  R0
	CP   R5,R0
	CPC  R6,R0
	BRLT _0x39
; 0000 00ED     {
; 0000 00EE         OCR2A = 0;
	CALL SUBOPT_0x6
; 0000 00EF         OCR2B = a*4;
; 0000 00F0         x = read_adc(0);
	CALL SUBOPT_0x7
; 0000 00F1         y = read_adc(1);
	CALL SUBOPT_0x8
; 0000 00F2         x = x-y;
	CALL SUBOPT_0x9
	CALL SUBOPT_0xA
; 0000 00F3         if (x<maxl) maxl = x;
	BRGE _0x3A
	CALL SUBOPT_0xB
; 0000 00F4         if (x>maxr) maxr = x;
_0x3A:
	CALL SUBOPT_0xC
	BRGE _0x3B
	CALL SUBOPT_0xD
; 0000 00F5         x = x/16+64;
_0x3B:
	CALL SUBOPT_0xE
; 0000 00F6         y = y/16;
; 0000 00F7         y = y + 32;
	CALL SUBOPT_0xF
	CALL SUBOPT_0x10
; 0000 00F8         drawLine(x0,y0,x,y,1);
; 0000 00F9         x0 = x; y0 = y;
; 0000 00FA     }
	__GETW1R 5,6
	SBIW R30,1
	__PUTW1R 5,6
	RJMP _0x38
_0x39:
; 0000 00FB     for(a = 0; a < 64; a++)
	CLR  R5
	CLR  R6
_0x3D:
	LDI  R30,LOW(64)
	LDI  R31,HIGH(64)
	CP   R5,R30
	CPC  R6,R31
	BRLT PC+2
	RJMP _0x3E
; 0000 00FC     {
; 0000 00FD         OCR2A = a*4;
	MOV  R30,R5
	LSL  R30
	LSL  R30
	CALL SUBOPT_0x5
; 0000 00FE         OCR2B = 0;
; 0000 00FF         y = read_adc(0);
	CALL SUBOPT_0x11
; 0000 0100         x = read_adc(1);
	CALL SUBOPT_0x12
; 0000 0101         x = y-x;
	CALL SUBOPT_0x13
; 0000 0102         if (x<maxl) maxl = x;
	BRGE _0x3F
	CALL SUBOPT_0xB
; 0000 0103         if (x>maxr) maxr = x;
_0x3F:
	CALL SUBOPT_0xC
	BRGE _0x40
	CALL SUBOPT_0xD
; 0000 0104         x = x/16+64;
_0x40:
	CALL SUBOPT_0xE
; 0000 0105         y = y/16;
; 0000 0106         y = 32-y;
	CALL SUBOPT_0x14
; 0000 0107         drawLine(x0,y0,x,y,1);
; 0000 0108         x0 = x; y0 = y;
; 0000 0109         if(a == 0)
	MOV  R0,R5
	OR   R0,R6
	BRNE _0x41
; 0000 010A         {
; 0000 010B            x = read_adc(1);
	CALL SUBOPT_0x12
; 0000 010C            a = read_adc(0);
	LDI  R26,LOW(0)
	CALL SUBOPT_0x15
; 0000 010D            x = (a-x)/4+256;
; 0000 010E           if(x<256)
	BRGE _0x42
; 0000 010F           {
; 0000 0110             x = 256-x;
	CALL SUBOPT_0x16
; 0000 0111             drawChar(2,7,'-');
	LDI  R30,LOW(2)
	LDI  R31,HIGH(2)
	CALL SUBOPT_0x17
	LDI  R26,LOW(45)
	RCALL _drawChar
; 0000 0112           } else x = x - 256;
	RJMP _0x43
_0x42:
	LDI  R30,LOW(256)
	LDI  R31,HIGH(256)
	__SUBWRR 13,14,30,31
; 0000 0113             if(x>99)
_0x43:
	LDI  R30,LOW(99)
	LDI  R31,HIGH(99)
	CP   R30,R13
	CPC  R31,R14
	BRGE _0x44
; 0000 0114             {
; 0000 0115                 drawChar(19,7,'L');
	CALL SUBOPT_0x18
	CALL SUBOPT_0x19
; 0000 0116                 drawChar(20,7,'V');
	LDI  R26,LOW(86)
	RJMP _0x63
; 0000 0117             }
; 0000 0118             else
_0x44:
; 0000 0119             {
; 0000 011A                 if(x<10)
	CALL SUBOPT_0x1A
	BRGE _0x46
; 0000 011B                 drawChar(3,7,0x30+x);
	LDI  R30,LOW(3)
	LDI  R31,HIGH(3)
	RJMP _0x64
; 0000 011C                 else
_0x46:
; 0000 011D                 {
; 0000 011E                 a = x/10;
	CALL SUBOPT_0x1B
; 0000 011F                 x = x - a*10;
; 0000 0120                 drawChar(3,7,0x30+a);
	LDI  R30,LOW(3)
	LDI  R31,HIGH(3)
	CALL SUBOPT_0x17
	MOV  R26,R5
	SUBI R26,-LOW(48)
	RCALL _drawChar
; 0000 0121                 drawChar(4,7,0x30+x);
	LDI  R30,LOW(4)
	LDI  R31,HIGH(4)
_0x64:
	ST   -Y,R31
	ST   -Y,R30
	CALL SUBOPT_0x1C
_0x63:
	RCALL _drawChar
; 0000 0122                 }
; 0000 0123             }
; 0000 0124 
; 0000 0125         }
; 0000 0126     }
_0x41:
	LDI  R30,LOW(1)
	LDI  R31,HIGH(1)
	__ADDWRR 5,6,30,31
	RJMP _0x3D
_0x3E:
; 0000 0127     drawPixel(64,0,1);
	CALL SUBOPT_0x1D
	CALL SUBOPT_0x1E
	CALL SUBOPT_0x1F
; 0000 0128     drawPixel(64,15,1);
	CALL SUBOPT_0x20
	CALL SUBOPT_0x1F
; 0000 0129     drawPixel(64,30,1);
	CALL SUBOPT_0x21
	CALL SUBOPT_0x1F
; 0000 012A     drawPixel(64,34,1);
	CALL SUBOPT_0x22
	CALL SUBOPT_0x1F
; 0000 012B     drawPixel(64,49,1);
	CALL SUBOPT_0x23
	CALL SUBOPT_0x1F
; 0000 012C     drawPixel(64,63,1);
	LDI  R30,LOW(63)
	LDI  R31,HIGH(63)
	ST   -Y,R31
	ST   -Y,R30
	CALL SUBOPT_0x24
; 0000 012D     drawPixel(64+met,30,1);
	CALL SUBOPT_0x21
	CALL SUBOPT_0x24
; 0000 012E     drawPixel(64+met,34,1);
	CALL SUBOPT_0x22
	CALL SUBOPT_0x25
; 0000 012F     drawPixel(64+met+met,30,1);
	CALL SUBOPT_0x21
	CALL SUBOPT_0x25
; 0000 0130     drawPixel(64+met+met,34,1);
	CALL SUBOPT_0x22
	CALL SUBOPT_0x26
; 0000 0131     drawPixel(64+met+met+met,30,1);
	CALL SUBOPT_0x21
	CALL SUBOPT_0x26
; 0000 0132     drawPixel(64+met+met+met,34,1);
	CALL SUBOPT_0x22
	CALL SUBOPT_0x27
; 0000 0133 //    drawPixel(116,30,1);
; 0000 0134 //    drawPixel(116,34,1);
; 0000 0135     drawPixel(64-met,30,1);
	CALL SUBOPT_0x21
	CALL SUBOPT_0x27
; 0000 0136     drawPixel(64-met,34,1);
	CALL SUBOPT_0x22
	CALL SUBOPT_0x28
; 0000 0137     drawPixel(64-met-met,30,1);
	CALL SUBOPT_0x21
	CALL SUBOPT_0x28
; 0000 0138     drawPixel(64-met-met,34,1);
	CALL SUBOPT_0x22
	CALL SUBOPT_0x29
; 0000 0139     drawPixel(64-met-met-met,34,1);
	CALL SUBOPT_0x22
	CALL SUBOPT_0x29
; 0000 013A     drawPixel(64-met-met-met,30,1);
	CALL SUBOPT_0x21
	CALL SUBOPT_0x24
; 0000 013B //    drawPixel(12,30,1);
; 0000 013C //    drawPixel(12,34,1);
; 0000 013D     drawPixel(64+met,49,1);
	CALL SUBOPT_0x23
	CALL SUBOPT_0x24
; 0000 013E     drawPixel(64+met,15,1);
	CALL SUBOPT_0x20
	CALL SUBOPT_0x27
; 0000 013F     drawPixel(64-met,49,1);
	CALL SUBOPT_0x23
	CALL SUBOPT_0x27
; 0000 0140     drawPixel(64-met,15,1);
	CALL SUBOPT_0x20
	LDI  R26,LOW(1)
	LDI  R27,0
	RCALL _drawPixel
; 0000 0141     drawString(0,7,"Ô:",2);
	LDI  R30,LOW(0)
	LDI  R31,HIGH(0)
	CALL SUBOPT_0x17
	__POINTW1MN _0x48,0
	CALL SUBOPT_0x2A
; 0000 0142     drawString(16,7,"Ô:",2);
	LDI  R30,LOW(16)
	LDI  R31,HIGH(16)
	CALL SUBOPT_0x17
	__POINTW1MN _0x48,3
	CALL SUBOPT_0x2A
; 0000 0143     drawChar(0,0,'+');
	CALL SUBOPT_0x1E
	CALL SUBOPT_0x1E
	LDI  R26,LOW(43)
	RCALL _drawChar
; 0000 0144     drawChar(20,0,'-');
	LDI  R30,LOW(20)
	LDI  R31,HIGH(20)
	CALL SUBOPT_0x2B
	LDI  R26,LOW(45)
	RCALL _drawChar
; 0000 0145     if((y>34)|(y<30)) time = 1800;
	CALL SUBOPT_0x2C
	BREQ _0x49
	LDI  R30,LOW(1800)
	LDI  R31,HIGH(1800)
	__PUTW1R 9,10
; 0000 0146     time = time - 1;
_0x49:
	__GETW1R 9,10
	SBIW R30,1
	__PUTW1R 9,10
; 0000 0147     delay_ms(44);
	LDI  R26,LOW(44)
	LDI  R27,0
	CALL _delay_ms
; 0000 0148     delay_us(700);
	__DELAY_USW 1400
; 0000 0149     for(a = 63; a >= 0; a--)
	LDI  R30,LOW(63)
	LDI  R31,HIGH(63)
	__PUTW1R 5,6
_0x4B:
	CLR  R0
	CP   R5,R0
	CPC  R6,R0
	BRLT _0x4C
; 0000 014A     {
; 0000 014B         OCR2A = a*4;
	MOV  R30,R5
	LSL  R30
	LSL  R30
	CALL SUBOPT_0x5
; 0000 014C         OCR2B = 0;
; 0000 014D         x = read_adc(1);
	CALL SUBOPT_0x12
; 0000 014E         y = read_adc(0);
	CALL SUBOPT_0x11
; 0000 014F         x = y-x;
	CALL SUBOPT_0x13
; 0000 0150         if (x<maxl) maxl = x;
	BRGE _0x4D
	CALL SUBOPT_0xB
; 0000 0151         if (x>maxr) maxr = x;
_0x4D:
	CALL SUBOPT_0xC
	BRGE _0x4E
	CALL SUBOPT_0xD
; 0000 0152         x = x/16+64;
_0x4E:
	CALL SUBOPT_0xE
; 0000 0153         y = y/16;
; 0000 0154         y = 32-y;
	CALL SUBOPT_0x14
; 0000 0155         drawLine(x0,y0,x,y,1);
; 0000 0156         x0 = x; y0 = y;
; 0000 0157     }
	__GETW1R 5,6
	SBIW R30,1
	__PUTW1R 5,6
	RJMP _0x4B
_0x4C:
; 0000 0158     for(a = 0; a < 64; a++)
	CLR  R5
	CLR  R6
_0x50:
	LDI  R30,LOW(64)
	LDI  R31,HIGH(64)
	CP   R5,R30
	CPC  R6,R31
	BRLT PC+2
	RJMP _0x51
; 0000 0159     {
; 0000 015A         OCR2A = 0;
	CALL SUBOPT_0x6
; 0000 015B         OCR2B = a * 4;
; 0000 015C         y = read_adc(1);
	CALL SUBOPT_0x8
; 0000 015D         x = read_adc(0);
	CALL SUBOPT_0x7
; 0000 015E         x = x-y;
	CALL SUBOPT_0x9
	CALL SUBOPT_0xA
; 0000 015F         if (x<maxl) maxl = x;
	BRGE _0x52
	CALL SUBOPT_0xB
; 0000 0160         if (x>maxr) maxr = x;
_0x52:
	CALL SUBOPT_0xC
	BRGE _0x53
	CALL SUBOPT_0xD
; 0000 0161         x = x/16+64;
_0x53:
	CALL SUBOPT_0xE
; 0000 0162         y = y/16;
; 0000 0163         y = y + 32 ;
	CALL SUBOPT_0xF
	CALL SUBOPT_0x10
; 0000 0164         drawLine(x0,y0,x,y,1);
; 0000 0165         x0 = x; y0 = y;
; 0000 0166       if(a == 0)
	MOV  R0,R5
	OR   R0,R6
	BRNE _0x54
; 0000 0167       {
; 0000 0168 
; 0000 0169             x = read_adc(0);
	CALL SUBOPT_0x7
; 0000 016A             a = read_adc(1);
	LDI  R26,LOW(1)
	CALL SUBOPT_0x15
; 0000 016B            x = (a-x)/4+256;
; 0000 016C           if(x<256)
	BRGE _0x55
; 0000 016D           {
; 0000 016E             x = 256-x;
	CALL SUBOPT_0x16
; 0000 016F             drawChar(18,7,'-');
	LDI  R30,LOW(18)
	LDI  R31,HIGH(18)
	CALL SUBOPT_0x17
	LDI  R26,LOW(45)
	RCALL _drawChar
; 0000 0170           } else x = x - 256;
	RJMP _0x56
_0x55:
	LDI  R30,LOW(256)
	LDI  R31,HIGH(256)
	__SUBWRR 13,14,30,31
; 0000 0171             if(x>99)
_0x56:
	LDI  R30,LOW(99)
	LDI  R31,HIGH(99)
	CP   R30,R13
	CPC  R31,R14
	BRGE _0x57
; 0000 0172             {
; 0000 0173                 drawChar(19,7,'L');
	CALL SUBOPT_0x18
	CALL SUBOPT_0x19
; 0000 0174                 drawChar(20,7,'V');
	LDI  R26,LOW(86)
	RJMP _0x65
; 0000 0175             }
; 0000 0176             else
_0x57:
; 0000 0177             {
; 0000 0178                 if(x<10)
	CALL SUBOPT_0x1A
	BRGE _0x59
; 0000 0179                 drawChar(19,7,0x30+x);
	LDI  R30,LOW(19)
	LDI  R31,HIGH(19)
	RJMP _0x66
; 0000 017A                 else
_0x59:
; 0000 017B                 {
; 0000 017C                 a = x/10;
	CALL SUBOPT_0x1B
; 0000 017D                 x = x - a*10;
; 0000 017E                 drawChar(19,7,0x30+a);
	CALL SUBOPT_0x18
	MOV  R26,R5
	SUBI R26,-LOW(48)
	RCALL _drawChar
; 0000 017F                 drawChar(20,7,0x30+x);
	LDI  R30,LOW(20)
	LDI  R31,HIGH(20)
_0x66:
	ST   -Y,R31
	ST   -Y,R30
	CALL SUBOPT_0x1C
_0x65:
	RCALL _drawChar
; 0000 0180                 }
; 0000 0181             }
; 0000 0182       }
; 0000 0183     }
_0x54:
	LDI  R30,LOW(1)
	LDI  R31,HIGH(1)
	__ADDWRR 5,6,30,31
	RJMP _0x50
_0x51:
; 0000 0184     x = -maxl/kof;
	LDS  R30,_maxl
	LDS  R31,_maxl+1
	CALL __ANEGW1
	MOVW R26,R30
	LDS  R30,_kof
	LDS  R31,_kof+1
	CALL SUBOPT_0x2D
; 0000 0185                 if(x<10)
	BRGE _0x5B
; 0000 0186                 {
; 0000 0187                     drawChar(16,0,'0');
	LDI  R30,LOW(16)
	LDI  R31,HIGH(16)
	CALL SUBOPT_0x2B
	LDI  R26,LOW(48)
	RJMP _0x67
; 0000 0188                     drawChar(18,0,0x30+x);
; 0000 0189                 }
; 0000 018A                 else
_0x5B:
; 0000 018B                 {
; 0000 018C                     a = x/10;
	CALL SUBOPT_0x1B
; 0000 018D                     x = x - a*10;
; 0000 018E                     drawChar(16,0,0x30+a);
	LDI  R30,LOW(16)
	LDI  R31,HIGH(16)
	CALL SUBOPT_0x2B
	MOV  R26,R5
	SUBI R26,-LOW(48)
_0x67:
	RCALL _drawChar
; 0000 018F                     drawChar(18,0,0x30+x);
	LDI  R30,LOW(18)
	LDI  R31,HIGH(18)
	CALL SUBOPT_0x2B
	MOV  R26,R13
	SUBI R26,-LOW(48)
	RCALL _drawChar
; 0000 0190                 }
; 0000 0191                 drawChar(17,0,'.');
	LDI  R30,LOW(17)
	LDI  R31,HIGH(17)
	CALL SUBOPT_0x2B
	LDI  R26,LOW(46)
	RCALL _drawChar
; 0000 0192                 drawChar(19,0,'v');
	LDI  R30,LOW(19)
	LDI  R31,HIGH(19)
	CALL SUBOPT_0x2B
	LDI  R26,LOW(118)
	RCALL _drawChar
; 0000 0193     x = maxr/kof;
	LDS  R30,_kof
	LDS  R31,_kof+1
	LDS  R26,_maxr
	LDS  R27,_maxr+1
	CALL SUBOPT_0x2D
; 0000 0194                 if(x<10)
	BRGE _0x5D
; 0000 0195                 {
; 0000 0196                     drawChar(1,0,'0');
	LDI  R30,LOW(1)
	LDI  R31,HIGH(1)
	CALL SUBOPT_0x2B
	LDI  R26,LOW(48)
	RJMP _0x68
; 0000 0197                     drawChar(3,0,0x30+x);
; 0000 0198                 }
; 0000 0199                 else
_0x5D:
; 0000 019A                 {
; 0000 019B                     a = x/10;
	CALL SUBOPT_0x1B
; 0000 019C                     x = x - a*10;
; 0000 019D                     drawChar(1,0,0x30+a);
	LDI  R30,LOW(1)
	LDI  R31,HIGH(1)
	CALL SUBOPT_0x2B
	MOV  R26,R5
	SUBI R26,-LOW(48)
_0x68:
	RCALL _drawChar
; 0000 019E                     drawChar(3,0,0x30+x);
	LDI  R30,LOW(3)
	LDI  R31,HIGH(3)
	CALL SUBOPT_0x2B
	MOV  R26,R13
	SUBI R26,-LOW(48)
	RCALL _drawChar
; 0000 019F                 }
; 0000 01A0                 drawChar(2,0,'.');
	LDI  R30,LOW(2)
	LDI  R31,HIGH(2)
	CALL SUBOPT_0x2B
	LDI  R26,LOW(46)
	RCALL _drawChar
; 0000 01A1                 drawChar(4,0,'v');
	LDI  R30,LOW(4)
	LDI  R31,HIGH(4)
	CALL SUBOPT_0x2B
	LDI  R26,LOW(118)
	RCALL _drawChar
; 0000 01A2     display();
	RCALL _display
; 0000 01A3     if((y>34)|(y<30)) time = 1200;
	CALL SUBOPT_0x2C
	BREQ _0x5F
	LDI  R30,LOW(1200)
	LDI  R31,HIGH(1200)
	__PUTW1R 9,10
; 0000 01A4     maxl = 0;
_0x5F:
	LDI  R30,LOW(0)
	STS  _maxl,R30
	STS  _maxl+1,R30
; 0000 01A5     maxr = 0;
	STS  _maxr,R30
	STS  _maxr+1,R30
; 0000 01A6 
; 0000 01A7       // Place your code here
; 0000 01A8 
; 0000 01A9 
; 0000 01AA }
	RJMP _0x34
_0x36:
; 0000 01AB     bufer[0] = 0x80;
	LDI  R30,LOW(128)
	STS  _bufer,R30
; 0000 01AC     bufer[1] = 0xAE;
	LDI  R30,LOW(174)
	__PUTB1MN _bufer,1
; 0000 01AD     twi_master_trans(0x3C, bufer, 2, rx_data, 0) ;
	CALL SUBOPT_0x3
	LDI  R30,LOW(2)
	CALL SUBOPT_0x4
; 0000 01AE 
; 0000 01AF          #asm("cli")                     // äàëüøå äåéñòâèÿ ïî âûêëþ÷åíèþ
	cli
; 0000 01B0             TWCR = 0;
	LDI  R30,LOW(0)
	STS  188,R30
; 0000 01B1             DDRC=DDRB=DDRD=0;
	OUT  0xA,R30
	OUT  0x4,R30
	OUT  0x7,R30
; 0000 01B2             PORTC=PORTD=0;
	OUT  0xB,R30
	OUT  0x8,R30
; 0000 01B3             PORTB=0x00;
	OUT  0x5,R30
; 0000 01B4             ASSR=(0<<EXCLK) | (0<<AS2);
	STS  182,R30
; 0000 01B5         TCCR2A=(0<<COM2A1) | (0<<COM2A0) | (0<<COM2B1) | (0<<COM2B0) | (0<<WGM21) | (0<<WGM20);
	STS  176,R30
; 0000 01B6         TCCR2B=(0<<WGM22) | (0<<CS22) | (0<<CS21) | (0<<CS20);
	STS  177,R30
; 0000 01B7 
; 0000 01B8             ADMUX=00;
	STS  124,R30
; 0000 01B9             ADCSRA=0x00;
	STS  122,R30
; 0000 01BA             MCUCR = 0x10;
	LDI  R30,LOW(16)
	OUT  0x35,R30
; 0000 01BB 
; 0000 01BC             sleep_enable(); //ðàçðåøåíèå ñïÿùåãî ðåæèìà
	RCALL _sleep_enable
; 0000 01BD             powerdown();
	CALL _powerdown
; 0000 01BE 
; 0000 01BF 
; 0000 01C0 }
_0x60:
	RJMP _0x60
; .FEND

	.DSEG
_0x48:
	.BYTE 0x6
	#ifndef __SLEEP_DEFINED__
	#define __SLEEP_DEFINED__
	.EQU __se_bit=0x01
	.EQU __sm_mask=0x0E
	.EQU __sm_adc_noise_red=0x02
	.EQU __sm_powerdown=0x04
	.EQU __sm_powersave=0x06
	.EQU __sm_standby=0x0C
	.EQU __sm_ext_standby=0x0E
	.SET power_ctrl_reg=smcr
	#endif

	.CSEG
_sleep_enable:
; .FSTART _sleep_enable
   in   r30,power_ctrl_reg
   sbr  r30,__se_bit
   out  power_ctrl_reg,r30
	RET
; .FEND
_powerdown:
; .FSTART _powerdown
   in   r30,power_ctrl_reg
   cbr  r30,__sm_mask
   sbr  r30,__sm_powerdown
   out  power_ctrl_reg,r30
   in   r30,sreg
   sei
   sleep
   out  sreg,r30
	RET
; .FEND
	#ifndef __SLEEP_DEFINED__
	#define __SLEEP_DEFINED__
	.EQU __se_bit=0x01
	.EQU __sm_mask=0x0E
	.EQU __sm_adc_noise_red=0x02
	.EQU __sm_powerdown=0x04
	.EQU __sm_powersave=0x06
	.EQU __sm_standby=0x0C
	.EQU __sm_ext_standby=0x0E
	.SET power_ctrl_reg=smcr
	#endif

	.DSEG

	.CSEG
_twi_master_init:
; .FSTART _twi_master_init
	ST   -Y,R27
	ST   -Y,R26
	ST   -Y,R17
	SBI  0x1E,1
	LDI  R30,LOW(7)
	STS  _twi_result,R30
	LDI  R30,LOW(0)
	STS  _twi_slave_rx_handler_G101,R30
	STS  _twi_slave_rx_handler_G101+1,R30
	STS  _twi_slave_tx_handler_G101,R30
	STS  _twi_slave_tx_handler_G101+1,R30
	SBI  0x8,4
	SBI  0x8,5
	STS  188,R30
	LDS  R30,185
	ANDI R30,LOW(0xFC)
	STS  185,R30
	LDD  R30,Y+1
	LDD  R31,Y+1+1
	LDI  R26,LOW(4000)
	LDI  R27,HIGH(4000)
	CALL __DIVW21U
	MOV  R17,R30
	CPI  R17,8
	BRLO _0x2020006
	SUBI R17,LOW(8)
_0x2020006:
	STS  184,R17
	LDS  R30,188
	ANDI R30,LOW(0x80)
	ORI  R30,LOW(0x45)
	STS  188,R30
	LDD  R17,Y+0
	ADIW R28,3
	RET
; .FEND
_twi_master_trans:
; .FSTART _twi_master_trans
	ST   -Y,R26
	SBIW R28,4
	SBIS 0x1E,1
	RJMP _0x2020007
	LDD  R30,Y+10
	LSL  R30
	STS  _slave_address_G101,R30
	LDD  R30,Y+8
	LDD  R31,Y+8+1
	STS  _twi_tx_buffer_G101,R30
	STS  _twi_tx_buffer_G101+1,R31
	LDI  R30,LOW(0)
	STS  _twi_tx_index,R30
	LDD  R30,Y+7
	STS  _bytes_to_tx_G101,R30
	LDD  R30,Y+5
	LDD  R31,Y+5+1
	STS  _twi_rx_buffer_G101,R30
	STS  _twi_rx_buffer_G101+1,R31
	LDI  R30,LOW(0)
	STS  _twi_rx_index,R30
	LDD  R30,Y+4
	STS  _bytes_to_rx_G101,R30
	LDI  R30,LOW(6)
	STS  _twi_result,R30
	sei
	LDD  R30,Y+7
	CPI  R30,0
	BREQ _0x2020008
	LDD  R30,Y+8
	LDD  R31,Y+8+1
	SBIW R30,0
	BRNE _0x2020009
	RJMP _0x2060002
_0x2020009:
	LDD  R30,Y+4
	CPI  R30,0
	BREQ _0x202000B
	LDD  R26,Y+5
	LDD  R27,Y+5+1
	SBIW R26,0
	BREQ _0x202000C
_0x202000B:
	RJMP _0x202000A
_0x202000C:
	RJMP _0x2060002
_0x202000A:
	SBI  0x1E,0
	RJMP _0x202000F
_0x2020008:
	LDD  R30,Y+4
	CPI  R30,0
	BREQ _0x2020010
	LDD  R30,Y+5
	LDD  R31,Y+5+1
	SBIW R30,0
	BREQ _0x2060002
	LDS  R30,_slave_address_G101
	ORI  R30,1
	STS  _slave_address_G101,R30
	CBI  0x1E,0
_0x202000F:
	CBI  0x1E,1
	LDS  R30,188
	ANDI R30,LOW(0xF)
	ORI  R30,LOW(0xA0)
	STS  188,R30
	__GETD1N 0x7A120
	CALL __PUTD1S0
_0x2020016:
	SBIC 0x1E,1
	RJMP _0x2020018
	CALL __GETD1S0
	SBIW R30,1
	SBCI R22,0
	SBCI R23,0
	CALL __PUTD1S0
	BRNE _0x2020019
	LDI  R30,LOW(5)
	STS  _twi_result,R30
	SBI  0x1E,1
	RJMP _0x2060002
_0x2020019:
	RJMP _0x2020016
_0x2020018:
_0x2020010:
	LDS  R26,_twi_result
	LDI  R30,LOW(0)
	CALL __EQB12
	RJMP _0x2060001
_0x2020007:
_0x2060002:
	LDI  R30,LOW(0)
_0x2060001:
	ADIW R28,11
	RET
; .FEND
_twi_int_handler:
; .FSTART _twi_int_handler
	ST   -Y,R0
	ST   -Y,R1
	ST   -Y,R15
	ST   -Y,R22
	ST   -Y,R23
	ST   -Y,R24
	ST   -Y,R25
	ST   -Y,R26
	ST   -Y,R27
	ST   -Y,R30
	ST   -Y,R31
	IN   R30,SREG
	ST   -Y,R30
	CALL __SAVELOCR6
	LDS  R17,_twi_rx_index
	LDS  R16,_twi_tx_index
	LDS  R19,_bytes_to_tx_G101
	LDS  R18,_twi_result
	MOV  R30,R17
	LDS  R26,_twi_rx_buffer_G101
	LDS  R27,_twi_rx_buffer_G101+1
	LDI  R31,0
	ADD  R30,R26
	ADC  R31,R27
	MOVW R20,R30
	LDS  R30,185
	ANDI R30,LOW(0xF8)
	CPI  R30,LOW(0x8)
	BRNE _0x2020023
	LDI  R18,LOW(0)
	RJMP _0x2020024
_0x2020023:
	CPI  R30,LOW(0x10)
	BRNE _0x2020025
_0x2020024:
	LDS  R30,_slave_address_G101
	RJMP _0x2020080
_0x2020025:
	CPI  R30,LOW(0x18)
	BREQ _0x2020029
	CPI  R30,LOW(0x28)
	BRNE _0x202002A
_0x2020029:
	CP   R16,R19
	BRSH _0x202002B
	MOV  R30,R16
	SUBI R16,-1
	LDS  R26,_twi_tx_buffer_G101
	LDS  R27,_twi_tx_buffer_G101+1
	LDI  R31,0
	ADD  R26,R30
	ADC  R27,R31
	LD   R30,X
_0x2020080:
	STS  187,R30
	LDS  R30,188
	ANDI R30,LOW(0xF)
	ORI  R30,0x80
	STS  188,R30
	RJMP _0x202002C
_0x202002B:
	LDS  R30,_bytes_to_rx_G101
	CP   R17,R30
	BRSH _0x202002D
	LDS  R30,_slave_address_G101
	ORI  R30,1
	STS  _slave_address_G101,R30
	CBI  0x1E,0
	LDS  R30,188
	ANDI R30,LOW(0xF)
	ORI  R30,LOW(0xA0)
	STS  188,R30
	RJMP _0x2020022
_0x202002D:
	RJMP _0x2020030
_0x202002C:
	RJMP _0x2020022
_0x202002A:
	CPI  R30,LOW(0x50)
	BRNE _0x2020031
	LDS  R30,187
	MOVW R26,R20
	ST   X,R30
	SUBI R17,-LOW(1)
	RJMP _0x2020032
_0x2020031:
	CPI  R30,LOW(0x40)
	BRNE _0x2020033
_0x2020032:
	LDS  R30,_bytes_to_rx_G101
	SUBI R30,LOW(1)
	CP   R17,R30
	BRLO _0x2020034
	LDS  R30,188
	ANDI R30,LOW(0xF)
	ORI  R30,0x80
	RJMP _0x2020081
_0x2020034:
	LDS  R30,188
	ANDI R30,LOW(0xF)
	ORI  R30,LOW(0xC0)
_0x2020081:
	STS  188,R30
	RJMP _0x2020022
_0x2020033:
	CPI  R30,LOW(0x58)
	BRNE _0x2020036
	LDS  R30,187
	MOVW R26,R20
	ST   X,R30
	SUBI R17,-LOW(1)
	RJMP _0x2020037
_0x2020036:
	CPI  R30,LOW(0x20)
	BRNE _0x2020038
_0x2020037:
	RJMP _0x2020039
_0x2020038:
	CPI  R30,LOW(0x30)
	BRNE _0x202003A
_0x2020039:
	RJMP _0x202003B
_0x202003A:
	CPI  R30,LOW(0x48)
	BRNE _0x202003C
_0x202003B:
	CPI  R18,0
	BRNE _0x202003D
	SBIS 0x1E,0
	RJMP _0x202003E
	CP   R16,R19
	BRLO _0x2020040
	RJMP _0x2020041
_0x202003E:
	LDS  R30,_bytes_to_rx_G101
	CP   R17,R30
	BRSH _0x2020042
_0x2020040:
	LDI  R18,LOW(4)
_0x2020042:
_0x2020041:
_0x202003D:
_0x2020030:
	RJMP _0x2020082
_0x202003C:
	CPI  R30,LOW(0x38)
	BRNE _0x2020045
	LDI  R18,LOW(2)
	LDS  R30,188
	ANDI R30,LOW(0xF)
	ORI  R30,0x80
	RJMP _0x2020083
_0x2020045:
	CPI  R30,LOW(0x68)
	BREQ _0x2020048
	CPI  R30,LOW(0x78)
	BRNE _0x2020049
_0x2020048:
	LDI  R18,LOW(2)
	RJMP _0x202004A
_0x2020049:
	CPI  R30,LOW(0x60)
	BREQ _0x202004D
	CPI  R30,LOW(0x70)
	BRNE _0x202004E
_0x202004D:
	LDI  R18,LOW(0)
_0x202004A:
	LDI  R17,LOW(0)
	CBI  0x1E,0
	LDS  R30,_twi_rx_buffer_size_G101
	CPI  R30,0
	BRNE _0x2020051
	LDI  R18,LOW(1)
	LDS  R30,188
	ANDI R30,LOW(0xF)
	ORI  R30,0x80
	RJMP _0x2020084
_0x2020051:
	LDS  R30,188
	ANDI R30,LOW(0xF)
	ORI  R30,LOW(0xC0)
_0x2020084:
	STS  188,R30
	RJMP _0x2020022
_0x202004E:
	CPI  R30,LOW(0x80)
	BREQ _0x2020054
	CPI  R30,LOW(0x90)
	BRNE _0x2020055
_0x2020054:
	SBIS 0x1E,0
	RJMP _0x2020056
	LDI  R18,LOW(1)
	RJMP _0x2020057
_0x2020056:
	LDS  R30,187
	MOVW R26,R20
	ST   X,R30
	SUBI R17,-LOW(1)
	LDS  R30,_twi_rx_buffer_size_G101
	CP   R17,R30
	BRSH _0x2020058
	LDS  R30,_twi_slave_rx_handler_G101
	LDS  R31,_twi_slave_rx_handler_G101+1
	SBIW R30,0
	BRNE _0x2020059
	LDI  R18,LOW(6)
	RJMP _0x2020057
_0x2020059:
	LDI  R26,LOW(0)
	__CALL1MN _twi_slave_rx_handler_G101,0
	CPI  R30,0
	BREQ _0x202005A
	LDS  R30,188
	ANDI R30,LOW(0xF)
	ORI  R30,LOW(0xC0)
	STS  188,R30
	RJMP _0x2020022
_0x202005A:
	RJMP _0x202005B
_0x2020058:
	SBI  0x1E,0
_0x202005B:
	RJMP _0x202005E
_0x2020055:
	CPI  R30,LOW(0x88)
	BRNE _0x202005F
_0x202005E:
	RJMP _0x2020060
_0x202005F:
	CPI  R30,LOW(0x98)
	BRNE _0x2020061
_0x2020060:
	LDS  R30,188
	ANDI R30,LOW(0xF)
	ORI  R30,0x80
	STS  188,R30
	RJMP _0x2020022
_0x2020061:
	CPI  R30,LOW(0xA0)
	BRNE _0x2020062
	LDS  R30,188
	ANDI R30,LOW(0xF)
	ORI  R30,LOW(0xC0)
	STS  188,R30
	SBI  0x1E,1
	LDS  R30,_twi_slave_rx_handler_G101
	LDS  R31,_twi_slave_rx_handler_G101+1
	SBIW R30,0
	BREQ _0x2020065
	LDI  R26,LOW(1)
	__CALL1MN _twi_slave_rx_handler_G101,0
	RJMP _0x2020066
_0x2020065:
	LDI  R18,LOW(6)
_0x2020066:
	RJMP _0x2020022
_0x2020062:
	CPI  R30,LOW(0xB0)
	BRNE _0x2020067
	LDI  R18,LOW(2)
	RJMP _0x2020068
_0x2020067:
	CPI  R30,LOW(0xA8)
	BRNE _0x2020069
_0x2020068:
	LDS  R30,_twi_slave_tx_handler_G101
	LDS  R31,_twi_slave_tx_handler_G101+1
	SBIW R30,0
	BREQ _0x202006A
	LDI  R26,LOW(0)
	__CALL1MN _twi_slave_tx_handler_G101,0
	MOV  R19,R30
	CPI  R30,0
	BREQ _0x202006C
	LDI  R18,LOW(0)
	RJMP _0x202006D
_0x202006A:
_0x202006C:
	LDI  R18,LOW(6)
	RJMP _0x2020057
_0x202006D:
	LDI  R16,LOW(0)
	CBI  0x1E,0
	RJMP _0x2020070
_0x2020069:
	CPI  R30,LOW(0xB8)
	BRNE _0x2020071
_0x2020070:
	SBIS 0x1E,0
	RJMP _0x2020072
	LDI  R18,LOW(1)
	RJMP _0x2020057
_0x2020072:
	MOV  R30,R16
	SUBI R16,-1
	LDS  R26,_twi_tx_buffer_G101
	LDS  R27,_twi_tx_buffer_G101+1
	LDI  R31,0
	ADD  R26,R30
	ADC  R27,R31
	LD   R30,X
	STS  187,R30
	CP   R16,R19
	BRSH _0x2020073
	LDS  R30,188
	ANDI R30,LOW(0xF)
	ORI  R30,LOW(0xC0)
	RJMP _0x2020085
_0x2020073:
	SBI  0x1E,0
	LDS  R30,188
	ANDI R30,LOW(0xF)
	ORI  R30,0x80
_0x2020085:
	STS  188,R30
	RJMP _0x2020022
_0x2020071:
	CPI  R30,LOW(0xC0)
	BREQ _0x2020078
	CPI  R30,LOW(0xC8)
	BRNE _0x2020079
_0x2020078:
	LDS  R30,188
	ANDI R30,LOW(0xF)
	ORI  R30,LOW(0xC0)
	STS  188,R30
	LDS  R30,_twi_slave_tx_handler_G101
	LDS  R31,_twi_slave_tx_handler_G101+1
	SBIW R30,0
	BREQ _0x202007A
	LDI  R26,LOW(1)
	__CALL1MN _twi_slave_tx_handler_G101,0
_0x202007A:
	RJMP _0x2020043
_0x2020079:
	CPI  R30,0
	BRNE _0x2020022
	LDI  R18,LOW(3)
_0x2020057:
_0x2020082:
	LDS  R30,188
	ANDI R30,LOW(0xF)
	ORI  R30,LOW(0xD0)
_0x2020083:
	STS  188,R30
_0x2020043:
	SBI  0x1E,1
_0x2020022:
	STS  _twi_rx_index,R17
	STS  _twi_tx_index,R16
	STS  _twi_result,R18
	STS  _bytes_to_tx_G101,R19
	CALL __LOADLOCR6
	ADIW R28,6
	LD   R30,Y+
	OUT  SREG,R30
	LD   R31,Y+
	LD   R30,Y+
	LD   R27,Y+
	LD   R26,Y+
	LD   R25,Y+
	LD   R24,Y+
	LD   R23,Y+
	LD   R22,Y+
	LD   R15,Y+
	LD   R1,Y+
	LD   R0,Y+
	RETI
; .FEND

	.CSEG

	.DSEG
_buffer:
	.BYTE 0x400
_y:
	.BYTE 0x2
_x0:
	.BYTE 0x2
_y0:
	.BYTE 0x2
_maxr:
	.BYTE 0x2
_maxl:
	.BYTE 0x2
_kof:
	.BYTE 0x2
_rx_data:
	.BYTE 0x1
_bufer:
	.BYTE 0x81
_tx_data0:
	.BYTE 0x32
_twi_tx_index:
	.BYTE 0x1
_twi_rx_index:
	.BYTE 0x1
_twi_result:
	.BYTE 0x1
_slave_address_G101:
	.BYTE 0x1
_twi_tx_buffer_G101:
	.BYTE 0x2
_bytes_to_tx_G101:
	.BYTE 0x1
_twi_rx_buffer_G101:
	.BYTE 0x2
_bytes_to_rx_G101:
	.BYTE 0x1
_twi_rx_buffer_size_G101:
	.BYTE 0x1
_twi_slave_rx_handler_G101:
	.BYTE 0x2
_twi_slave_tx_handler_G101:
	.BYTE 0x2

	.CSEG
;OPTIMIZER ADDED SUBROUTINE, CALLED 3 TIMES, CODE SIZE REDUCTION:1 WORDS
SUBOPT_0x0:
	ST   -Y,R17
	ST   -Y,R16
	__GETWRN 16,17,0
	RET

;OPTIMIZER ADDED SUBROUTINE, CALLED 3 TIMES, CODE SIZE REDUCTION:39 WORDS
SUBOPT_0x1:
	LDD  R26,Y+2
	LDD  R27,Y+2+1
	LDI  R30,LOW(8)
	LDI  R31,HIGH(8)
	CALL __DIVW21
	CALL __LSLW3
	CALL __LSLW4
	LDD  R26,Y+4
	LDD  R27,Y+4+1
	ADD  R30,R26
	ADC  R31,R27
	SUBI R30,LOW(-_buffer)
	SBCI R31,HIGH(-_buffer)
	MOVW R22,R30
	LD   R1,Z
	LDD  R30,Y+2
	ANDI R30,LOW(0x7)
	LDI  R26,LOW(1)
	CALL __LSLB12
	RET

;OPTIMIZER ADDED SUBROUTINE, CALLED 2 TIMES, CODE SIZE REDUCTION:29 WORDS
SUBOPT_0x2:
	LDD  R26,Y+16
	LDD  R27,Y+16+1
	LDD  R30,Y+12
	LDD  R31,Y+12+1
	SUB  R30,R26
	SBC  R31,R27
	MOVW R26,R30
	MOVW R30,R20
	CALL __MULW12
	MOVW R16,R30
	LDD  R26,Y+14
	LDD  R27,Y+14+1
	LDD  R30,Y+10
	LDD  R31,Y+10+1
	SUB  R30,R26
	SBC  R31,R27
	LDD  R26,Y+6
	LDD  R27,Y+6+1
	CALL __MULW12
	MOVW R18,R30
	LDD  R30,Y+16
	LDD  R31,Y+16+1
	ST   -Y,R31
	ST   -Y,R30
	LDD  R30,Y+16
	LDD  R31,Y+16+1
	ST   -Y,R31
	ST   -Y,R30
	LDD  R26,Y+12
	LDD  R27,Y+12+1
	JMP  _drawPixel

;OPTIMIZER ADDED SUBROUTINE, CALLED 3 TIMES, CODE SIZE REDUCTION:5 WORDS
SUBOPT_0x3:
	LDI  R30,LOW(60)
	ST   -Y,R30
	LDI  R30,LOW(_bufer)
	LDI  R31,HIGH(_bufer)
	ST   -Y,R31
	ST   -Y,R30
	RET

;OPTIMIZER ADDED SUBROUTINE, CALLED 4 TIMES, CODE SIZE REDUCTION:15 WORDS
SUBOPT_0x4:
	ST   -Y,R30
	LDI  R30,LOW(_rx_data)
	LDI  R31,HIGH(_rx_data)
	ST   -Y,R31
	ST   -Y,R30
	LDI  R26,LOW(0)
	JMP  _twi_master_trans

;OPTIMIZER ADDED SUBROUTINE, CALLED 3 TIMES, CODE SIZE REDUCTION:3 WORDS
SUBOPT_0x5:
	STS  179,R30
	LDI  R30,LOW(0)
	STS  180,R30
	RET

;OPTIMIZER ADDED SUBROUTINE, CALLED 2 TIMES, CODE SIZE REDUCTION:3 WORDS
SUBOPT_0x6:
	LDI  R30,LOW(0)
	STS  179,R30
	MOV  R30,R5
	LSL  R30
	LSL  R30
	STS  180,R30
	RET

;OPTIMIZER ADDED SUBROUTINE, CALLED 3 TIMES, CODE SIZE REDUCTION:3 WORDS
SUBOPT_0x7:
	LDI  R26,LOW(0)
	CALL _read_adc
	__PUTW1R 13,14
	RET

;OPTIMIZER ADDED SUBROUTINE, CALLED 2 TIMES, CODE SIZE REDUCTION:2 WORDS
SUBOPT_0x8:
	LDI  R26,LOW(1)
	CALL _read_adc
	STS  _y,R30
	STS  _y+1,R31
	RET

;OPTIMIZER ADDED SUBROUTINE, CALLED 12 TIMES, CODE SIZE REDUCTION:19 WORDS
SUBOPT_0x9:
	LDS  R26,_y
	LDS  R27,_y+1
	RET

;OPTIMIZER ADDED SUBROUTINE, CALLED 2 TIMES, CODE SIZE REDUCTION:3 WORDS
SUBOPT_0xA:
	__SUBWRR 13,14,26,27
	LDS  R30,_maxl
	LDS  R31,_maxl+1
	CP   R13,R30
	CPC  R14,R31
	RET

;OPTIMIZER ADDED SUBROUTINE, CALLED 4 TIMES, CODE SIZE REDUCTION:3 WORDS
SUBOPT_0xB:
	__PUTWMRN _maxl,0,13,14
	RET

;OPTIMIZER ADDED SUBROUTINE, CALLED 4 TIMES, CODE SIZE REDUCTION:9 WORDS
SUBOPT_0xC:
	LDS  R30,_maxr
	LDS  R31,_maxr+1
	CP   R30,R13
	CPC  R31,R14
	RET

;OPTIMIZER ADDED SUBROUTINE, CALLED 4 TIMES, CODE SIZE REDUCTION:3 WORDS
SUBOPT_0xD:
	__PUTWMRN _maxr,0,13,14
	RET

;OPTIMIZER ADDED SUBROUTINE, CALLED 4 TIMES, CODE SIZE REDUCTION:51 WORDS
SUBOPT_0xE:
	__GETW2R 13,14
	LDI  R30,LOW(16)
	LDI  R31,HIGH(16)
	CALL __DIVW21
	SUBI R30,LOW(-64)
	SBCI R31,HIGH(-64)
	__PUTW1R 13,14
	RCALL SUBOPT_0x9
	LDI  R30,LOW(16)
	LDI  R31,HIGH(16)
	CALL __DIVW21
	STS  _y,R30
	STS  _y+1,R31
	RET

;OPTIMIZER ADDED SUBROUTINE, CALLED 12 TIMES, CODE SIZE REDUCTION:19 WORDS
SUBOPT_0xF:
	LDS  R30,_y
	LDS  R31,_y+1
	RET

;OPTIMIZER ADDED SUBROUTINE, CALLED 2 TIMES, CODE SIZE REDUCTION:32 WORDS
SUBOPT_0x10:
	ADIW R30,32
	STS  _y,R30
	STS  _y+1,R31
	LDS  R30,_x0
	LDS  R31,_x0+1
	ST   -Y,R31
	ST   -Y,R30
	LDS  R30,_y0
	LDS  R31,_y0+1
	ST   -Y,R31
	ST   -Y,R30
	ST   -Y,R14
	ST   -Y,R13
	RCALL SUBOPT_0xF
	ST   -Y,R31
	ST   -Y,R30
	LDI  R26,LOW(1)
	LDI  R27,0
	CALL _drawLine
	__PUTWMRN _x0,0,13,14
	RCALL SUBOPT_0xF
	STS  _y0,R30
	STS  _y0+1,R31
	RET

;OPTIMIZER ADDED SUBROUTINE, CALLED 2 TIMES, CODE SIZE REDUCTION:2 WORDS
SUBOPT_0x11:
	LDI  R26,LOW(0)
	CALL _read_adc
	STS  _y,R30
	STS  _y+1,R31
	RET

;OPTIMIZER ADDED SUBROUTINE, CALLED 3 TIMES, CODE SIZE REDUCTION:3 WORDS
SUBOPT_0x12:
	LDI  R26,LOW(1)
	CALL _read_adc
	__PUTW1R 13,14
	RET

;OPTIMIZER ADDED SUBROUTINE, CALLED 2 TIMES, CODE SIZE REDUCTION:7 WORDS
SUBOPT_0x13:
	RCALL SUBOPT_0xF
	SUB  R30,R13
	SBC  R31,R14
	__PUTW1R 13,14
	LDS  R30,_maxl
	LDS  R31,_maxl+1
	CP   R13,R30
	CPC  R14,R31
	RET

;OPTIMIZER ADDED SUBROUTINE, CALLED 2 TIMES, CODE SIZE REDUCTION:37 WORDS
SUBOPT_0x14:
	RCALL SUBOPT_0x9
	LDI  R30,LOW(32)
	LDI  R31,HIGH(32)
	SUB  R30,R26
	SBC  R31,R27
	STS  _y,R30
	STS  _y+1,R31
	LDS  R30,_x0
	LDS  R31,_x0+1
	ST   -Y,R31
	ST   -Y,R30
	LDS  R30,_y0
	LDS  R31,_y0+1
	ST   -Y,R31
	ST   -Y,R30
	ST   -Y,R14
	ST   -Y,R13
	RCALL SUBOPT_0xF
	ST   -Y,R31
	ST   -Y,R30
	LDI  R26,LOW(1)
	LDI  R27,0
	CALL _drawLine
	__PUTWMRN _x0,0,13,14
	RCALL SUBOPT_0xF
	STS  _y0,R30
	STS  _y0+1,R31
	RET

;OPTIMIZER ADDED SUBROUTINE, CALLED 2 TIMES, CODE SIZE REDUCTION:15 WORDS
SUBOPT_0x15:
	CALL _read_adc
	__PUTW1R 5,6
	__GETW2R 5,6
	SUB  R26,R13
	SBC  R27,R14
	LDI  R30,LOW(4)
	LDI  R31,HIGH(4)
	CALL __DIVW21
	SUBI R30,LOW(-256)
	SBCI R31,HIGH(-256)
	__PUTW1R 13,14
	LDI  R30,LOW(256)
	LDI  R31,HIGH(256)
	CP   R13,R30
	CPC  R14,R31
	RET

;OPTIMIZER ADDED SUBROUTINE, CALLED 2 TIMES, CODE SIZE REDUCTION:1 WORDS
SUBOPT_0x16:
	LDI  R30,LOW(256)
	LDI  R31,HIGH(256)
	SUB  R30,R13
	SBC  R31,R14
	__PUTW1R 13,14
	RET

;OPTIMIZER ADDED SUBROUTINE, CALLED 10 TIMES, CODE SIZE REDUCTION:33 WORDS
SUBOPT_0x17:
	ST   -Y,R31
	ST   -Y,R30
	LDI  R30,LOW(7)
	LDI  R31,HIGH(7)
	ST   -Y,R31
	ST   -Y,R30
	RET

;OPTIMIZER ADDED SUBROUTINE, CALLED 3 TIMES, CODE SIZE REDUCTION:1 WORDS
SUBOPT_0x18:
	LDI  R30,LOW(19)
	LDI  R31,HIGH(19)
	RJMP SUBOPT_0x17

;OPTIMIZER ADDED SUBROUTINE, CALLED 2 TIMES, CODE SIZE REDUCTION:2 WORDS
SUBOPT_0x19:
	LDI  R26,LOW(76)
	CALL _drawChar
	LDI  R30,LOW(20)
	LDI  R31,HIGH(20)
	RJMP SUBOPT_0x17

;OPTIMIZER ADDED SUBROUTINE, CALLED 4 TIMES, CODE SIZE REDUCTION:3 WORDS
SUBOPT_0x1A:
	LDI  R30,LOW(10)
	LDI  R31,HIGH(10)
	CP   R13,R30
	CPC  R14,R31
	RET

;OPTIMIZER ADDED SUBROUTINE, CALLED 4 TIMES, CODE SIZE REDUCTION:39 WORDS
SUBOPT_0x1B:
	__GETW2R 13,14
	LDI  R30,LOW(10)
	LDI  R31,HIGH(10)
	CALL __DIVW21
	__PUTW1R 5,6
	LDI  R26,LOW(10)
	LDI  R27,HIGH(10)
	CALL __MULW12
	__SUBWRR 13,14,30,31
	RET

;OPTIMIZER ADDED SUBROUTINE, CALLED 2 TIMES, CODE SIZE REDUCTION:1 WORDS
SUBOPT_0x1C:
	LDI  R30,LOW(7)
	LDI  R31,HIGH(7)
	ST   -Y,R31
	ST   -Y,R30
	MOV  R26,R13
	SUBI R26,-LOW(48)
	RET

;OPTIMIZER ADDED SUBROUTINE, CALLED 6 TIMES, CODE SIZE REDUCTION:7 WORDS
SUBOPT_0x1D:
	LDI  R30,LOW(64)
	LDI  R31,HIGH(64)
	ST   -Y,R31
	ST   -Y,R30
	RET

;OPTIMIZER ADDED SUBROUTINE, CALLED 14 TIMES, CODE SIZE REDUCTION:23 WORDS
SUBOPT_0x1E:
	LDI  R30,LOW(0)
	LDI  R31,HIGH(0)
	ST   -Y,R31
	ST   -Y,R30
	RET

;OPTIMIZER ADDED SUBROUTINE, CALLED 5 TIMES, CODE SIZE REDUCTION:13 WORDS
SUBOPT_0x1F:
	LDI  R26,LOW(1)
	LDI  R27,0
	CALL _drawPixel
	RJMP SUBOPT_0x1D

;OPTIMIZER ADDED SUBROUTINE, CALLED 3 TIMES, CODE SIZE REDUCTION:1 WORDS
SUBOPT_0x20:
	LDI  R30,LOW(15)
	LDI  R31,HIGH(15)
	ST   -Y,R31
	ST   -Y,R30
	RET

;OPTIMIZER ADDED SUBROUTINE, CALLED 7 TIMES, CODE SIZE REDUCTION:9 WORDS
SUBOPT_0x21:
	LDI  R30,LOW(30)
	LDI  R31,HIGH(30)
	ST   -Y,R31
	ST   -Y,R30
	RET

;OPTIMIZER ADDED SUBROUTINE, CALLED 7 TIMES, CODE SIZE REDUCTION:9 WORDS
SUBOPT_0x22:
	LDI  R30,LOW(34)
	LDI  R31,HIGH(34)
	ST   -Y,R31
	ST   -Y,R30
	RET

;OPTIMIZER ADDED SUBROUTINE, CALLED 3 TIMES, CODE SIZE REDUCTION:1 WORDS
SUBOPT_0x23:
	LDI  R30,LOW(49)
	LDI  R31,HIGH(49)
	ST   -Y,R31
	ST   -Y,R30
	RET

;OPTIMIZER ADDED SUBROUTINE, CALLED 4 TIMES, CODE SIZE REDUCTION:21 WORDS
SUBOPT_0x24:
	LDI  R26,LOW(1)
	LDI  R27,0
	CALL _drawPixel
	__GETW1R 11,12
	SUBI R30,LOW(-64)
	SBCI R31,HIGH(-64)
	ST   -Y,R31
	ST   -Y,R30
	RET

;OPTIMIZER ADDED SUBROUTINE, CALLED 2 TIMES, CODE SIZE REDUCTION:7 WORDS
SUBOPT_0x25:
	LDI  R26,LOW(1)
	LDI  R27,0
	CALL _drawPixel
	__GETW1R 11,12
	SUBI R30,LOW(-64)
	SBCI R31,HIGH(-64)
	ADD  R30,R11
	ADC  R31,R12
	ST   -Y,R31
	ST   -Y,R30
	RET

;OPTIMIZER ADDED SUBROUTINE, CALLED 2 TIMES, CODE SIZE REDUCTION:9 WORDS
SUBOPT_0x26:
	LDI  R26,LOW(1)
	LDI  R27,0
	CALL _drawPixel
	__GETW1R 11,12
	SUBI R30,LOW(-64)
	SBCI R31,HIGH(-64)
	ADD  R30,R11
	ADC  R31,R12
	ADD  R30,R11
	ADC  R31,R12
	ST   -Y,R31
	ST   -Y,R30
	RET

;OPTIMIZER ADDED SUBROUTINE, CALLED 4 TIMES, CODE SIZE REDUCTION:21 WORDS
SUBOPT_0x27:
	LDI  R26,LOW(1)
	LDI  R27,0
	CALL _drawPixel
	LDI  R30,LOW(64)
	LDI  R31,HIGH(64)
	SUB  R30,R11
	SBC  R31,R12
	ST   -Y,R31
	ST   -Y,R30
	RET

;OPTIMIZER ADDED SUBROUTINE, CALLED 2 TIMES, CODE SIZE REDUCTION:7 WORDS
SUBOPT_0x28:
	LDI  R26,LOW(1)
	LDI  R27,0
	CALL _drawPixel
	LDI  R30,LOW(64)
	LDI  R31,HIGH(64)
	SUB  R30,R11
	SBC  R31,R12
	SUB  R30,R11
	SBC  R31,R12
	ST   -Y,R31
	ST   -Y,R30
	RET

;OPTIMIZER ADDED SUBROUTINE, CALLED 2 TIMES, CODE SIZE REDUCTION:9 WORDS
SUBOPT_0x29:
	LDI  R26,LOW(1)
	LDI  R27,0
	CALL _drawPixel
	LDI  R30,LOW(64)
	LDI  R31,HIGH(64)
	SUB  R30,R11
	SBC  R31,R12
	SUB  R30,R11
	SBC  R31,R12
	SUB  R30,R11
	SBC  R31,R12
	ST   -Y,R31
	ST   -Y,R30
	RET

;OPTIMIZER ADDED SUBROUTINE, CALLED 2 TIMES, CODE SIZE REDUCTION:1 WORDS
SUBOPT_0x2A:
	ST   -Y,R31
	ST   -Y,R30
	LDI  R26,LOW(2)
	LDI  R27,0
	JMP  _drawString

;OPTIMIZER ADDED SUBROUTINE, CALLED 11 TIMES, CODE SIZE REDUCTION:17 WORDS
SUBOPT_0x2B:
	ST   -Y,R31
	ST   -Y,R30
	RJMP SUBOPT_0x1E

;OPTIMIZER ADDED SUBROUTINE, CALLED 2 TIMES, CODE SIZE REDUCTION:9 WORDS
SUBOPT_0x2C:
	RCALL SUBOPT_0x9
	LDI  R30,LOW(34)
	LDI  R31,HIGH(34)
	CALL __GTW12
	MOV  R0,R30
	RCALL SUBOPT_0x9
	LDI  R30,LOW(30)
	LDI  R31,HIGH(30)
	CALL __LTW12
	OR   R30,R0
	RET

;OPTIMIZER ADDED SUBROUTINE, CALLED 2 TIMES, CODE SIZE REDUCTION:1 WORDS
SUBOPT_0x2D:
	CALL __DIVW21
	__PUTW1R 13,14
	RJMP SUBOPT_0x1A


	.CSEG
_delay_ms:
	adiw r26,0
	breq __delay_ms1
__delay_ms0:
	__DELAY_USW 0x7D0
	wdr
	sbiw r26,1
	brne __delay_ms0
__delay_ms1:
	ret

__ANEGW1:
	NEG  R31
	NEG  R30
	SBCI R31,0
	RET

__LSLB12:
	TST  R30
	MOV  R0,R30
	MOV  R30,R26
	BREQ __LSLB12R
__LSLB12L:
	LSL  R30
	DEC  R0
	BRNE __LSLB12L
__LSLB12R:
	RET

__LSLW4:
	LSL  R30
	ROL  R31
__LSLW3:
	LSL  R30
	ROL  R31
__LSLW2:
	LSL  R30
	ROL  R31
	LSL  R30
	ROL  R31
	RET

__EQB12:
	CP   R30,R26
	LDI  R30,1
	BREQ __EQB12T
	CLR  R30
__EQB12T:
	RET

__LTW12:
	CP   R26,R30
	CPC  R27,R31
	LDI  R30,1
	BRLT __LTW12T
	CLR  R30
__LTW12T:
	RET

__GTW12:
	CP   R30,R26
	CPC  R31,R27
	LDI  R30,1
	BRLT __GTW12T
	CLR  R30
__GTW12T:
	RET

__MULW12U:
	MUL  R31,R26
	MOV  R31,R0
	MUL  R30,R27
	ADD  R31,R0
	MUL  R30,R26
	MOV  R30,R0
	ADD  R31,R1
	RET

__MULW12:
	RCALL __CHKSIGNW
	RCALL __MULW12U
	BRTC __MULW121
	RCALL __ANEGW1
__MULW121:
	RET

__DIVW21U:
	CLR  R0
	CLR  R1
	LDI  R25,16
__DIVW21U1:
	LSL  R26
	ROL  R27
	ROL  R0
	ROL  R1
	SUB  R0,R30
	SBC  R1,R31
	BRCC __DIVW21U2
	ADD  R0,R30
	ADC  R1,R31
	RJMP __DIVW21U3
__DIVW21U2:
	SBR  R26,1
__DIVW21U3:
	DEC  R25
	BRNE __DIVW21U1
	MOVW R30,R26
	MOVW R26,R0
	RET

__DIVW21:
	RCALL __CHKSIGNW
	RCALL __DIVW21U
	BRTC __DIVW211
	RCALL __ANEGW1
__DIVW211:
	RET

__CHKSIGNW:
	CLT
	SBRS R31,7
	RJMP __CHKSW1
	RCALL __ANEGW1
	SET
__CHKSW1:
	SBRS R27,7
	RJMP __CHKSW2
	COM  R26
	COM  R27
	ADIW R26,1
	BLD  R0,0
	INC  R0
	BST  R0,0
__CHKSW2:
	RET

__GETD1S0:
	LD   R30,Y
	LDD  R31,Y+1
	LDD  R22,Y+2
	LDD  R23,Y+3
	RET

__PUTD1S0:
	ST   Y,R30
	STD  Y+1,R31
	STD  Y+2,R22
	STD  Y+3,R23
	RET

__CPW02:
	CLR  R0
	CP   R0,R26
	CPC  R0,R27
	RET

__SAVELOCR6:
	ST   -Y,R21
__SAVELOCR5:
	ST   -Y,R20
__SAVELOCR4:
	ST   -Y,R19
__SAVELOCR3:
	ST   -Y,R18
__SAVELOCR2:
	ST   -Y,R17
	ST   -Y,R16
	RET

__LOADLOCR6:
	LDD  R21,Y+5
__LOADLOCR5:
	LDD  R20,Y+4
__LOADLOCR4:
	LDD  R19,Y+3
__LOADLOCR3:
	LDD  R18,Y+2
__LOADLOCR2:
	LDD  R17,Y+1
	LD   R16,Y
	RET

;END OF CODE MARKER
__END_OF_CODE:
