
AVRASM ver. 2.1.30  F:\Project\Micro\AVR\Oscill\Release\List\osc.asm Fri Feb 13 14:50:21 2015

F:\Project\Micro\AVR\Oscill\Release\List\osc.asm(1090): warning: Register r3 already defined by the .DEF directive
F:\Project\Micro\AVR\Oscill\Release\List\osc.asm(1091): warning: Register r4 already defined by the .DEF directive
F:\Project\Micro\AVR\Oscill\Release\List\osc.asm(1092): warning: Register r5 already defined by the .DEF directive
F:\Project\Micro\AVR\Oscill\Release\List\osc.asm(1093): warning: Register r6 already defined by the .DEF directive
F:\Project\Micro\AVR\Oscill\Release\List\osc.asm(1094): warning: Register r7 already defined by the .DEF directive
F:\Project\Micro\AVR\Oscill\Release\List\osc.asm(1095): warning: Register r8 already defined by the .DEF directive
F:\Project\Micro\AVR\Oscill\Release\List\osc.asm(1096): warning: Register r9 already defined by the .DEF directive
F:\Project\Micro\AVR\Oscill\Release\List\osc.asm(1097): warning: Register r10 already defined by the .DEF directive
F:\Project\Micro\AVR\Oscill\Release\List\osc.asm(1098): warning: Register r11 already defined by the .DEF directive
F:\Project\Micro\AVR\Oscill\Release\List\osc.asm(1099): warning: Register r12 already defined by the .DEF directive
F:\Project\Micro\AVR\Oscill\Release\List\osc.asm(1100): warning: Register r13 already defined by the .DEF directive
F:\Project\Micro\AVR\Oscill\Release\List\osc.asm(1101): warning: Register r14 already defined by the .DEF directive
                 
                 
                 ;CodeVisionAVR C Compiler V3.12 Advanced
                 ;(C) Copyright 1998-2014 Pavel Haiduc, HP InfoTech s.r.l.
                 ;http://www.hpinfotech.com
                 
                 ;Build configuration    : Release
                 ;Chip type              : ATmega328P
                 ;Program type           : Application
                 ;Clock frequency        : 8,000000 MHz
                 ;Memory model           : Small
                 ;Optimize for           : Size
                 ;(s)printf features     : int, width
                 ;(s)scanf features      : int, width
                 ;External RAM size      : 0
                 ;Data Stack size        : 512 byte(s)
                 ;Heap size              : 0 byte(s)
                 ;Promote 'char' to 'int': Yes
                 ;'char' is unsigned     : Yes
                 ;8 bit enums            : Yes
                 ;Global 'const' stored in FLASH: Yes
                 ;Enhanced function parameter passing: Yes
                 ;Enhanced core instructions: On
                 ;Automatic register allocation for global variables: On
                 ;Smart register allocation: On
                 
                 	#define _MODEL_SMALL_
                 
                 	#pragma AVRPART ADMIN PART_NAME ATmega328P
                 	#pragma AVRPART MEMORY PROG_FLASH 32768
                 	#pragma AVRPART MEMORY EEPROM 1024
                 	#pragma AVRPART MEMORY INT_SRAM SIZE 2048
                 	#pragma AVRPART MEMORY INT_SRAM START_ADDR 0x100
                 
                 	#define CALL_SUPPORTED 1
                 
                 	.LISTMAC
                 	.EQU EERE=0x0
                 	.EQU EEWE=0x1
                 	.EQU EEMWE=0x2
                 	.EQU UDRE=0x5
                 	.EQU RXC=0x7
                 	.EQU EECR=0x1F
                 	.EQU EEDR=0x20
                 	.EQU EEARL=0x21
                 	.EQU EEARH=0x22
                 	.EQU SPSR=0x2D
                 	.EQU SPDR=0x2E
                 	.EQU SMCR=0x33
                 	.EQU MCUSR=0x34
                 	.EQU MCUCR=0x35
                 	.EQU WDTCSR=0x60
                 	.EQU UCSR0A=0xC0
                 	.EQU UDR0=0xC6
                 	.EQU SPL=0x3D
                 	.EQU SPH=0x3E
                 	.EQU SREG=0x3F
                 	.EQU GPIOR0=0x1E
                 
                 	.DEF R0X0=R0
                 	.DEF R0X1=R1
                 	.DEF R0X2=R2
                 	.DEF R0X3=R3
                 	.DEF R0X4=R4
                 	.DEF R0X5=R5
                 	.DEF R0X6=R6
                 	.DEF R0X7=R7
                 	.DEF R0X8=R8
                 	.DEF R0X9=R9
                 	.DEF R0XA=R10
                 	.DEF R0XB=R11
                 	.DEF R0XC=R12
                 	.DEF R0XD=R13
                 	.DEF R0XE=R14
                 	.DEF R0XF=R15
                 	.DEF R0X10=R16
                 	.DEF R0X11=R17
                 	.DEF R0X12=R18
                 	.DEF R0X13=R19
                 	.DEF R0X14=R20
                 	.DEF R0X15=R21
                 	.DEF R0X16=R22
                 	.DEF R0X17=R23
                 	.DEF R0X18=R24
                 	.DEF R0X19=R25
                 	.DEF R0X1A=R26
                 	.DEF R0X1B=R27
                 	.DEF R0X1C=R28
                 	.DEF R0X1D=R29
                 	.DEF R0X1E=R30
                 	.DEF R0X1F=R31
                 
                 	.EQU __SRAM_START=0x0100
                 	.EQU __SRAM_END=0x08FF
                 	.EQU __DSTACK_SIZE=0x0200
                 	.EQU __HEAP_SIZE=0x0000
                 	.EQU __CLEAR_SRAM_SIZE=__SRAM_END-__SRAM_START+1
                 
                 	.MACRO __CPD1N
                 	CPI  R30,LOW(@0)
                 	LDI  R26,HIGH(@0)
                 	CPC  R31,R26
                 	LDI  R26,BYTE3(@0)
                 	CPC  R22,R26
                 	LDI  R26,BYTE4(@0)
                 	CPC  R23,R26
                 	.ENDM
                 
                 	.MACRO __CPD2N
                 	CPI  R26,LOW(@0)
                 	LDI  R30,HIGH(@0)
                 	CPC  R27,R30
                 	LDI  R30,BYTE3(@0)
                 	CPC  R24,R30
                 	LDI  R30,BYTE4(@0)
                 	CPC  R25,R30
                 	.ENDM
                 
                 	.MACRO __CPWRR
                 	CP   R@0,R@2
                 	CPC  R@1,R@3
                 	.ENDM
                 
                 	.MACRO __CPWRN
                 	CPI  R@0,LOW(@2)
                 	LDI  R30,HIGH(@2)
                 	CPC  R@1,R30
                 	.ENDM
                 
                 	.MACRO __ADDB1MN
                 	SUBI R30,LOW(-@0-(@1))
                 	.ENDM
                 
                 	.MACRO __ADDB2MN
                 	SUBI R26,LOW(-@0-(@1))
                 	.ENDM
                 
                 	.MACRO __ADDW1MN
                 	SUBI R30,LOW(-@0-(@1))
                 	SBCI R31,HIGH(-@0-(@1))
                 	.ENDM
                 
                 	.MACRO __ADDW2MN
                 	SUBI R26,LOW(-@0-(@1))
                 	SBCI R27,HIGH(-@0-(@1))
                 	.ENDM
                 
                 	.MACRO __ADDW1FN
                 	SUBI R30,LOW(-2*@0-(@1))
                 	SBCI R31,HIGH(-2*@0-(@1))
                 	.ENDM
                 
                 	.MACRO __ADDD1FN
                 	SUBI R30,LOW(-2*@0-(@1))
                 	SBCI R31,HIGH(-2*@0-(@1))
                 	SBCI R22,BYTE3(-2*@0-(@1))
                 	.ENDM
                 
                 	.MACRO __ADDD1N
                 	SUBI R30,LOW(-@0)
                 	SBCI R31,HIGH(-@0)
                 	SBCI R22,BYTE3(-@0)
                 	SBCI R23,BYTE4(-@0)
                 	.ENDM
                 
                 	.MACRO __ADDD2N
                 	SUBI R26,LOW(-@0)
                 	SBCI R27,HIGH(-@0)
                 	SBCI R24,BYTE3(-@0)
                 	SBCI R25,BYTE4(-@0)
                 	.ENDM
                 
                 	.MACRO __SUBD1N
                 	SUBI R30,LOW(@0)
                 	SBCI R31,HIGH(@0)
                 	SBCI R22,BYTE3(@0)
                 	SBCI R23,BYTE4(@0)
                 	.ENDM
                 
                 	.MACRO __SUBD2N
                 	SUBI R26,LOW(@0)
                 	SBCI R27,HIGH(@0)
                 	SBCI R24,BYTE3(@0)
                 	SBCI R25,BYTE4(@0)
                 	.ENDM
                 
                 	.MACRO __ANDBMNN
                 	LDS  R30,@0+(@1)
                 	ANDI R30,LOW(@2)
                 	STS  @0+(@1),R30
                 	.ENDM
                 
                 	.MACRO __ANDWMNN
                 	LDS  R30,@0+(@1)
                 	ANDI R30,LOW(@2)
                 	STS  @0+(@1),R30
                 	LDS  R30,@0+(@1)+1
                 	ANDI R30,HIGH(@2)
                 	STS  @0+(@1)+1,R30
                 	.ENDM
                 
                 	.MACRO __ANDD1N
                 	ANDI R30,LOW(@0)
                 	ANDI R31,HIGH(@0)
                 	ANDI R22,BYTE3(@0)
                 	ANDI R23,BYTE4(@0)
                 	.ENDM
                 
                 	.MACRO __ANDD2N
                 	ANDI R26,LOW(@0)
                 	ANDI R27,HIGH(@0)
                 	ANDI R24,BYTE3(@0)
                 	ANDI R25,BYTE4(@0)
                 	.ENDM
                 
                 	.MACRO __ORBMNN
                 	LDS  R30,@0+(@1)
                 	ORI  R30,LOW(@2)
                 	STS  @0+(@1),R30
                 	.ENDM
                 
                 	.MACRO __ORWMNN
                 	LDS  R30,@0+(@1)
                 	ORI  R30,LOW(@2)
                 	STS  @0+(@1),R30
                 	LDS  R30,@0+(@1)+1
                 	ORI  R30,HIGH(@2)
                 	STS  @0+(@1)+1,R30
                 	.ENDM
                 
                 	.MACRO __ORD1N
                 	ORI  R30,LOW(@0)
                 	ORI  R31,HIGH(@0)
                 	ORI  R22,BYTE3(@0)
                 	ORI  R23,BYTE4(@0)
                 	.ENDM
                 
                 	.MACRO __ORD2N
                 	ORI  R26,LOW(@0)
                 	ORI  R27,HIGH(@0)
                 	ORI  R24,BYTE3(@0)
                 	ORI  R25,BYTE4(@0)
                 	.ENDM
                 
                 	.MACRO __DELAY_USB
                 	LDI  R24,LOW(@0)
                 __DELAY_USB_LOOP:
                 	DEC  R24
                 	BRNE __DELAY_USB_LOOP
                 	.ENDM
                 
                 	.MACRO __DELAY_USW
                 	LDI  R24,LOW(@0)
                 	LDI  R25,HIGH(@0)
                 __DELAY_USW_LOOP:
                 	SBIW R24,1
                 	BRNE __DELAY_USW_LOOP
                 	.ENDM
                 
                 	.MACRO __GETD1S
                 	LDD  R30,Y+@0
                 	LDD  R31,Y+@0+1
                 	LDD  R22,Y+@0+2
                 	LDD  R23,Y+@0+3
                 	.ENDM
                 
                 	.MACRO __GETD2S
                 	LDD  R26,Y+@0
                 	LDD  R27,Y+@0+1
                 	LDD  R24,Y+@0+2
                 	LDD  R25,Y+@0+3
                 	.ENDM
                 
                 	.MACRO __PUTD1S
                 	STD  Y+@0,R30
                 	STD  Y+@0+1,R31
                 	STD  Y+@0+2,R22
                 	STD  Y+@0+3,R23
                 	.ENDM
                 
                 	.MACRO __PUTD2S
                 	STD  Y+@0,R26
                 	STD  Y+@0+1,R27
                 	STD  Y+@0+2,R24
                 	STD  Y+@0+3,R25
                 	.ENDM
                 
                 	.MACRO __PUTDZ2
                 	STD  Z+@0,R26
                 	STD  Z+@0+1,R27
                 	STD  Z+@0+2,R24
                 	STD  Z+@0+3,R25
                 	.ENDM
                 
                 	.MACRO __CLRD1S
                 	STD  Y+@0,R30
                 	STD  Y+@0+1,R30
                 	STD  Y+@0+2,R30
                 	STD  Y+@0+3,R30
                 	.ENDM
                 
                 	.MACRO __POINTB1MN
                 	LDI  R30,LOW(@0+(@1))
                 	.ENDM
                 
                 	.MACRO __POINTW1MN
                 	LDI  R30,LOW(@0+(@1))
                 	LDI  R31,HIGH(@0+(@1))
                 	.ENDM
                 
                 	.MACRO __POINTD1M
                 	LDI  R30,LOW(@0)
                 	LDI  R31,HIGH(@0)
                 	LDI  R22,BYTE3(@0)
                 	LDI  R23,BYTE4(@0)
                 	.ENDM
                 
                 	.MACRO __POINTW1FN
                 	LDI  R30,LOW(2*@0+(@1))
                 	LDI  R31,HIGH(2*@0+(@1))
                 	.ENDM
                 
                 	.MACRO __POINTD1FN
                 	LDI  R30,LOW(2*@0+(@1))
                 	LDI  R31,HIGH(2*@0+(@1))
                 	LDI  R22,BYTE3(2*@0+(@1))
                 	LDI  R23,BYTE4(2*@0+(@1))
                 	.ENDM
                 
                 	.MACRO __POINTB2MN
                 	LDI  R26,LOW(@0+(@1))
                 	.ENDM
                 
                 	.MACRO __POINTW2MN
                 	LDI  R26,LOW(@0+(@1))
                 	LDI  R27,HIGH(@0+(@1))
                 	.ENDM
                 
                 	.MACRO __POINTW2FN
                 	LDI  R26,LOW(2*@0+(@1))
                 	LDI  R27,HIGH(2*@0+(@1))
                 	.ENDM
                 
                 	.MACRO __POINTD2FN
                 	LDI  R26,LOW(2*@0+(@1))
                 	LDI  R27,HIGH(2*@0+(@1))
                 	LDI  R24,BYTE3(2*@0+(@1))
                 	LDI  R25,BYTE4(2*@0+(@1))
                 	.ENDM
                 
                 	.MACRO __POINTBRM
                 	LDI  R@0,LOW(@1)
                 	.ENDM
                 
                 	.MACRO __POINTWRM
                 	LDI  R@0,LOW(@2)
                 	LDI  R@1,HIGH(@2)
                 	.ENDM
                 
                 	.MACRO __POINTBRMN
                 	LDI  R@0,LOW(@1+(@2))
                 	.ENDM
                 
                 	.MACRO __POINTWRMN
                 	LDI  R@0,LOW(@2+(@3))
                 	LDI  R@1,HIGH(@2+(@3))
                 	.ENDM
                 
                 	.MACRO __POINTWRFN
                 	LDI  R@0,LOW(@2*2+(@3))
                 	LDI  R@1,HIGH(@2*2+(@3))
                 	.ENDM
                 
                 	.MACRO __GETD1N
                 	LDI  R30,LOW(@0)
                 	LDI  R31,HIGH(@0)
                 	LDI  R22,BYTE3(@0)
                 	LDI  R23,BYTE4(@0)
                 	.ENDM
                 
                 	.MACRO __GETD2N
                 	LDI  R26,LOW(@0)
                 	LDI  R27,HIGH(@0)
                 	LDI  R24,BYTE3(@0)
                 	LDI  R25,BYTE4(@0)
                 	.ENDM
                 
                 	.MACRO __GETB1MN
                 	LDS  R30,@0+(@1)
                 	.ENDM
                 
                 	.MACRO __GETB1HMN
                 	LDS  R31,@0+(@1)
                 	.ENDM
                 
                 	.MACRO __GETW1MN
                 	LDS  R30,@0+(@1)
                 	LDS  R31,@0+(@1)+1
                 	.ENDM
                 
                 	.MACRO __GETD1MN
                 	LDS  R30,@0+(@1)
                 	LDS  R31,@0+(@1)+1
                 	LDS  R22,@0+(@1)+2
                 	LDS  R23,@0+(@1)+3
                 	.ENDM
                 
                 	.MACRO __GETBRMN
                 	LDS  R@0,@1+(@2)
                 	.ENDM
                 
                 	.MACRO __GETWRMN
                 	LDS  R@0,@2+(@3)
                 	LDS  R@1,@2+(@3)+1
                 	.ENDM
                 
                 	.MACRO __GETWRZ
                 	LDD  R@0,Z+@2
                 	LDD  R@1,Z+@2+1
                 	.ENDM
                 
                 	.MACRO __GETD2Z
                 	LDD  R26,Z+@0
                 	LDD  R27,Z+@0+1
                 	LDD  R24,Z+@0+2
                 	LDD  R25,Z+@0+3
                 	.ENDM
                 
                 	.MACRO __GETB2MN
                 	LDS  R26,@0+(@1)
                 	.ENDM
                 
                 	.MACRO __GETW2MN
                 	LDS  R26,@0+(@1)
                 	LDS  R27,@0+(@1)+1
                 	.ENDM
                 
                 	.MACRO __GETD2MN
                 	LDS  R26,@0+(@1)
                 	LDS  R27,@0+(@1)+1
                 	LDS  R24,@0+(@1)+2
                 	LDS  R25,@0+(@1)+3
                 	.ENDM
                 
                 	.MACRO __PUTB1MN
                 	STS  @0+(@1),R30
                 	.ENDM
                 
                 	.MACRO __PUTW1MN
                 	STS  @0+(@1),R30
                 	STS  @0+(@1)+1,R31
                 	.ENDM
                 
                 	.MACRO __PUTD1MN
                 	STS  @0+(@1),R30
                 	STS  @0+(@1)+1,R31
                 	STS  @0+(@1)+2,R22
                 	STS  @0+(@1)+3,R23
                 	.ENDM
                 
                 	.MACRO __PUTB1EN
                 	LDI  R26,LOW(@0+(@1))
                 	LDI  R27,HIGH(@0+(@1))
                 	CALL __EEPROMWRB
                 	.ENDM
                 
                 	.MACRO __PUTW1EN
                 	LDI  R26,LOW(@0+(@1))
                 	LDI  R27,HIGH(@0+(@1))
                 	CALL __EEPROMWRW
                 	.ENDM
                 
                 	.MACRO __PUTD1EN
                 	LDI  R26,LOW(@0+(@1))
                 	LDI  R27,HIGH(@0+(@1))
                 	CALL __EEPROMWRD
                 	.ENDM
                 
                 	.MACRO __PUTBR0MN
                 	STS  @0+(@1),R0
                 	.ENDM
                 
                 	.MACRO __PUTBMRN
                 	STS  @0+(@1),R@2
                 	.ENDM
                 
                 	.MACRO __PUTWMRN
                 	STS  @0+(@1),R@2
                 	STS  @0+(@1)+1,R@3
                 	.ENDM
                 
                 	.MACRO __PUTBZR
                 	STD  Z+@1,R@0
                 	.ENDM
                 
                 	.MACRO __PUTWZR
                 	STD  Z+@2,R@0
                 	STD  Z+@2+1,R@1
                 	.ENDM
                 
                 	.MACRO __GETW1R
                 	MOV  R30,R@0
                 	MOV  R31,R@1
                 	.ENDM
                 
                 	.MACRO __GETW2R
                 	MOV  R26,R@0
                 	MOV  R27,R@1
                 	.ENDM
                 
                 	.MACRO __GETWRN
                 	LDI  R@0,LOW(@2)
                 	LDI  R@1,HIGH(@2)
                 	.ENDM
                 
                 	.MACRO __PUTW1R
                 	MOV  R@0,R30
                 	MOV  R@1,R31
                 	.ENDM
                 
                 	.MACRO __PUTW2R
                 	MOV  R@0,R26
                 	MOV  R@1,R27
                 	.ENDM
                 
                 	.MACRO __ADDWRN
                 	SUBI R@0,LOW(-@2)
                 	SBCI R@1,HIGH(-@2)
                 	.ENDM
                 
                 	.MACRO __ADDWRR
                 	ADD  R@0,R@2
                 	ADC  R@1,R@3
                 	.ENDM
                 
                 	.MACRO __SUBWRN
                 	SUBI R@0,LOW(@2)
                 	SBCI R@1,HIGH(@2)
                 	.ENDM
                 
                 	.MACRO __SUBWRR
                 	SUB  R@0,R@2
                 	SBC  R@1,R@3
                 	.ENDM
                 
                 	.MACRO __ANDWRN
                 	ANDI R@0,LOW(@2)
                 	ANDI R@1,HIGH(@2)
                 	.ENDM
                 
                 	.MACRO __ANDWRR
                 	AND  R@0,R@2
                 	AND  R@1,R@3
                 	.ENDM
                 
                 	.MACRO __ORWRN
                 	ORI  R@0,LOW(@2)
                 	ORI  R@1,HIGH(@2)
                 	.ENDM
                 
                 	.MACRO __ORWRR
                 	OR   R@0,R@2
                 	OR   R@1,R@3
                 	.ENDM
                 
                 	.MACRO __EORWRR
                 	EOR  R@0,R@2
                 	EOR  R@1,R@3
                 	.ENDM
                 
                 	.MACRO __GETWRS
                 	LDD  R@0,Y+@2
                 	LDD  R@1,Y+@2+1
                 	.ENDM
                 
                 	.MACRO __PUTBSR
                 	STD  Y+@1,R@0
                 	.ENDM
                 
                 	.MACRO __PUTWSR
                 	STD  Y+@2,R@0
                 	STD  Y+@2+1,R@1
                 	.ENDM
                 
                 	.MACRO __MOVEWRR
                 	MOV  R@0,R@2
                 	MOV  R@1,R@3
                 	.ENDM
                 
                 	.MACRO __INWR
                 	IN   R@0,@2
                 	IN   R@1,@2+1
                 	.ENDM
                 
                 	.MACRO __OUTWR
                 	OUT  @2+1,R@1
                 	OUT  @2,R@0
                 	.ENDM
                 
                 	.MACRO __CALL1MN
                 	LDS  R30,@0+(@1)
                 	LDS  R31,@0+(@1)+1
                 	ICALL
                 	.ENDM
                 
                 	.MACRO __CALL1FN
                 	LDI  R30,LOW(2*@0+(@1))
                 	LDI  R31,HIGH(2*@0+(@1))
                 	CALL __GETW1PF
                 	ICALL
                 	.ENDM
                 
                 	.MACRO __CALL2EN
                 	PUSH R26
                 	PUSH R27
                 	LDI  R26,LOW(@0+(@1))
                 	LDI  R27,HIGH(@0+(@1))
                 	CALL __EEPROMRDW
                 	POP  R27
                 	POP  R26
                 	ICALL
                 	.ENDM
                 
                 	.MACRO __CALL2EX
                 	SUBI R26,LOW(-@0)
                 	SBCI R27,HIGH(-@0)
                 	CALL __EEPROMRDD
                 	ICALL
                 	.ENDM
                 
                 	.MACRO __GETW1STACK
                 	IN   R30,SPL
                 	IN   R31,SPH
                 	ADIW R30,@0+1
                 	LD   R0,Z+
                 	LD   R31,Z
                 	MOV  R30,R0
                 	.ENDM
                 
                 	.MACRO __GETD1STACK
                 	IN   R30,SPL
                 	IN   R31,SPH
                 	ADIW R30,@0+1
                 	LD   R0,Z+
                 	LD   R1,Z+
                 	LD   R22,Z
                 	MOVW R30,R0
                 	.ENDM
                 
                 	.MACRO __NBST
                 	BST  R@0,@1
                 	IN   R30,SREG
                 	LDI  R31,0x40
                 	EOR  R30,R31
                 	OUT  SREG,R30
                 	.ENDM
                 
                 
                 	.MACRO __PUTB1SN
                 	LDD  R26,Y+@0
                 	LDD  R27,Y+@0+1
                 	SUBI R26,LOW(-@1)
                 	SBCI R27,HIGH(-@1)
                 	ST   X,R30
                 	.ENDM
                 
                 	.MACRO __PUTW1SN
                 	LDD  R26,Y+@0
                 	LDD  R27,Y+@0+1
                 	SUBI R26,LOW(-@1)
                 	SBCI R27,HIGH(-@1)
                 	ST   X+,R30
                 	ST   X,R31
                 	.ENDM
                 
                 	.MACRO __PUTD1SN
                 	LDD  R26,Y+@0
                 	LDD  R27,Y+@0+1
                 	SUBI R26,LOW(-@1)
                 	SBCI R27,HIGH(-@1)
                 	CALL __PUTDP1
                 	.ENDM
                 
                 	.MACRO __PUTB1SNS
                 	LDD  R26,Y+@0
                 	LDD  R27,Y+@0+1
                 	ADIW R26,@1
                 	ST   X,R30
                 	.ENDM
                 
                 	.MACRO __PUTW1SNS
                 	LDD  R26,Y+@0
                 	LDD  R27,Y+@0+1
                 	ADIW R26,@1
                 	ST   X+,R30
                 	ST   X,R31
                 	.ENDM
                 
                 	.MACRO __PUTD1SNS
                 	LDD  R26,Y+@0
                 	LDD  R27,Y+@0+1
                 	ADIW R26,@1
                 	CALL __PUTDP1
                 	.ENDM
                 
                 	.MACRO __PUTB1PMN
                 	LDS  R26,@0
                 	LDS  R27,@0+1
                 	SUBI R26,LOW(-@1)
                 	SBCI R27,HIGH(-@1)
                 	ST   X,R30
                 	.ENDM
                 
                 	.MACRO __PUTW1PMN
                 	LDS  R26,@0
                 	LDS  R27,@0+1
                 	SUBI R26,LOW(-@1)
                 	SBCI R27,HIGH(-@1)
                 	ST   X+,R30
                 	ST   X,R31
                 	.ENDM
                 
                 	.MACRO __PUTD1PMN
                 	LDS  R26,@0
                 	LDS  R27,@0+1
                 	SUBI R26,LOW(-@1)
                 	SBCI R27,HIGH(-@1)
                 	CALL __PUTDP1
                 	.ENDM
                 
                 	.MACRO __PUTB1PMNS
                 	LDS  R26,@0
                 	LDS  R27,@0+1
                 	ADIW R26,@1
                 	ST   X,R30
                 	.ENDM
                 
                 	.MACRO __PUTW1PMNS
                 	LDS  R26,@0
                 	LDS  R27,@0+1
                 	ADIW R26,@1
                 	ST   X+,R30
                 	ST   X,R31
                 	.ENDM
                 
                 	.MACRO __PUTD1PMNS
                 	LDS  R26,@0
                 	LDS  R27,@0+1
                 	ADIW R26,@1
                 	CALL __PUTDP1
                 	.ENDM
                 
                 	.MACRO __PUTB1RN
                 	MOVW R26,R@0
                 	SUBI R26,LOW(-@1)
                 	SBCI R27,HIGH(-@1)
                 	ST   X,R30
                 	.ENDM
                 
                 	.MACRO __PUTW1RN
                 	MOVW R26,R@0
                 	SUBI R26,LOW(-@1)
                 	SBCI R27,HIGH(-@1)
                 	ST   X+,R30
                 	ST   X,R31
                 	.ENDM
                 
                 	.MACRO __PUTD1RN
                 	MOVW R26,R@0
                 	SUBI R26,LOW(-@1)
                 	SBCI R27,HIGH(-@1)
                 	CALL __PUTDP1
                 	.ENDM
                 
                 	.MACRO __PUTB1RNS
                 	MOVW R26,R@0
                 	ADIW R26,@1
                 	ST   X,R30
                 	.ENDM
                 
                 	.MACRO __PUTW1RNS
                 	MOVW R26,R@0
                 	ADIW R26,@1
                 	ST   X+,R30
                 	ST   X,R31
                 	.ENDM
                 
                 	.MACRO __PUTD1RNS
                 	MOVW R26,R@0
                 	ADIW R26,@1
                 	CALL __PUTDP1
                 	.ENDM
                 
                 	.MACRO __PUTB1RON
                 	MOV  R26,R@0
                 	MOV  R27,R@1
                 	SUBI R26,LOW(-@2)
                 	SBCI R27,HIGH(-@2)
                 	ST   X,R30
                 	.ENDM
                 
                 	.MACRO __PUTW1RON
                 	MOV  R26,R@0
                 	MOV  R27,R@1
                 	SUBI R26,LOW(-@2)
                 	SBCI R27,HIGH(-@2)
                 	ST   X+,R30
                 	ST   X,R31
                 	.ENDM
                 
                 	.MACRO __PUTD1RON
                 	MOV  R26,R@0
                 	MOV  R27,R@1
                 	SUBI R26,LOW(-@2)
                 	SBCI R27,HIGH(-@2)
                 	CALL __PUTDP1
                 	.ENDM
                 
                 	.MACRO __PUTB1RONS
                 	MOV  R26,R@0
                 	MOV  R27,R@1
                 	ADIW R26,@2
                 	ST   X,R30
                 	.ENDM
                 
                 	.MACRO __PUTW1RONS
                 	MOV  R26,R@0
                 	MOV  R27,R@1
                 	ADIW R26,@2
                 	ST   X+,R30
                 	ST   X,R31
                 	.ENDM
                 
                 	.MACRO __PUTD1RONS
                 	MOV  R26,R@0
                 	MOV  R27,R@1
                 	ADIW R26,@2
                 	CALL __PUTDP1
                 	.ENDM
                 
                 
                 	.MACRO __GETB1SX
                 	MOVW R30,R28
                 	SUBI R30,LOW(-@0)
                 	SBCI R31,HIGH(-@0)
                 	LD   R30,Z
                 	.ENDM
                 
                 	.MACRO __GETB1HSX
                 	MOVW R30,R28
                 	SUBI R30,LOW(-@0)
                 	SBCI R31,HIGH(-@0)
                 	LD   R31,Z
                 	.ENDM
                 
                 	.MACRO __GETW1SX
                 	MOVW R30,R28
                 	SUBI R30,LOW(-@0)
                 	SBCI R31,HIGH(-@0)
                 	LD   R0,Z+
                 	LD   R31,Z
                 	MOV  R30,R0
                 	.ENDM
                 
                 	.MACRO __GETD1SX
                 	MOVW R30,R28
                 	SUBI R30,LOW(-@0)
                 	SBCI R31,HIGH(-@0)
                 	LD   R0,Z+
                 	LD   R1,Z+
                 	LD   R22,Z+
                 	LD   R23,Z
                 	MOVW R30,R0
                 	.ENDM
                 
                 	.MACRO __GETB2SX
                 	MOVW R26,R28
                 	SUBI R26,LOW(-@0)
                 	SBCI R27,HIGH(-@0)
                 	LD   R26,X
                 	.ENDM
                 
                 	.MACRO __GETW2SX
                 	MOVW R26,R28
                 	SUBI R26,LOW(-@0)
                 	SBCI R27,HIGH(-@0)
                 	LD   R0,X+
                 	LD   R27,X
                 	MOV  R26,R0
                 	.ENDM
                 
                 	.MACRO __GETD2SX
                 	MOVW R26,R28
                 	SUBI R26,LOW(-@0)
                 	SBCI R27,HIGH(-@0)
                 	LD   R0,X+
                 	LD   R1,X+
                 	LD   R24,X+
                 	LD   R25,X
                 	MOVW R26,R0
                 	.ENDM
                 
                 	.MACRO __GETBRSX
                 	MOVW R30,R28
                 	SUBI R30,LOW(-@1)
                 	SBCI R31,HIGH(-@1)
                 	LD   R@0,Z
                 	.ENDM
                 
                 	.MACRO __GETWRSX
                 	MOVW R30,R28
                 	SUBI R30,LOW(-@2)
                 	SBCI R31,HIGH(-@2)
                 	LD   R@0,Z+
                 	LD   R@1,Z
                 	.ENDM
                 
                 	.MACRO __GETBRSX2
                 	MOVW R26,R28
                 	SUBI R26,LOW(-@1)
                 	SBCI R27,HIGH(-@1)
                 	LD   R@0,X
                 	.ENDM
                 
                 	.MACRO __GETWRSX2
                 	MOVW R26,R28
                 	SUBI R26,LOW(-@2)
                 	SBCI R27,HIGH(-@2)
                 	LD   R@0,X+
                 	LD   R@1,X
                 	.ENDM
                 
                 	.MACRO __LSLW8SX
                 	MOVW R30,R28
                 	SUBI R30,LOW(-@0)
                 	SBCI R31,HIGH(-@0)
                 	LD   R31,Z
                 	CLR  R30
                 	.ENDM
                 
                 	.MACRO __PUTB1SX
                 	MOVW R26,R28
                 	SUBI R26,LOW(-@0)
                 	SBCI R27,HIGH(-@0)
                 	ST   X,R30
                 	.ENDM
                 
                 	.MACRO __PUTW1SX
                 	MOVW R26,R28
                 	SUBI R26,LOW(-@0)
                 	SBCI R27,HIGH(-@0)
                 	ST   X+,R30
                 	ST   X,R31
                 	.ENDM
                 
                 	.MACRO __PUTD1SX
                 	MOVW R26,R28
                 	SUBI R26,LOW(-@0)
                 	SBCI R27,HIGH(-@0)
                 	ST   X+,R30
                 	ST   X+,R31
                 	ST   X+,R22
                 	ST   X,R23
                 	.ENDM
                 
                 	.MACRO __CLRW1SX
                 	MOVW R26,R28
                 	SUBI R26,LOW(-@0)
                 	SBCI R27,HIGH(-@0)
                 	ST   X+,R30
                 	ST   X,R30
                 	.ENDM
                 
                 	.MACRO __CLRD1SX
                 	MOVW R26,R28
                 	SUBI R26,LOW(-@0)
                 	SBCI R27,HIGH(-@0)
                 	ST   X+,R30
                 	ST   X+,R30
                 	ST   X+,R30
                 	ST   X,R30
                 	.ENDM
                 
                 	.MACRO __PUTB2SX
                 	MOVW R30,R28
                 	SUBI R30,LOW(-@0)
                 	SBCI R31,HIGH(-@0)
                 	ST   Z,R26
                 	.ENDM
                 
                 	.MACRO __PUTW2SX
                 	MOVW R30,R28
                 	SUBI R30,LOW(-@0)
                 	SBCI R31,HIGH(-@0)
                 	ST   Z+,R26
                 	ST   Z,R27
                 	.ENDM
                 
                 	.MACRO __PUTD2SX
                 	MOVW R30,R28
                 	SUBI R30,LOW(-@0)
                 	SBCI R31,HIGH(-@0)
                 	ST   Z+,R26
                 	ST   Z+,R27
                 	ST   Z+,R24
                 	ST   Z,R25
                 	.ENDM
                 
                 	.MACRO __PUTBSRX
                 	MOVW R30,R28
                 	SUBI R30,LOW(-@1)
                 	SBCI R31,HIGH(-@1)
                 	ST   Z,R@0
                 	.ENDM
                 
                 	.MACRO __PUTWSRX
                 	MOVW R30,R28
                 	SUBI R30,LOW(-@2)
                 	SBCI R31,HIGH(-@2)
                 	ST   Z+,R@0
                 	ST   Z,R@1
                 	.ENDM
                 
                 	.MACRO __PUTB1SNX
                 	MOVW R26,R28
                 	SUBI R26,LOW(-@0)
                 	SBCI R27,HIGH(-@0)
                 	LD   R0,X+
                 	LD   R27,X
                 	MOV  R26,R0
                 	SUBI R26,LOW(-@1)
                 	SBCI R27,HIGH(-@1)
                 	ST   X,R30
                 	.ENDM
                 
                 	.MACRO __PUTW1SNX
                 	MOVW R26,R28
                 	SUBI R26,LOW(-@0)
                 	SBCI R27,HIGH(-@0)
                 	LD   R0,X+
                 	LD   R27,X
                 	MOV  R26,R0
                 	SUBI R26,LOW(-@1)
                 	SBCI R27,HIGH(-@1)
                 	ST   X+,R30
                 	ST   X,R31
                 	.ENDM
                 
                 	.MACRO __PUTD1SNX
                 	MOVW R26,R28
                 	SUBI R26,LOW(-@0)
                 	SBCI R27,HIGH(-@0)
                 	LD   R0,X+
                 	LD   R27,X
                 	MOV  R26,R0
                 	SUBI R26,LOW(-@1)
                 	SBCI R27,HIGH(-@1)
                 	ST   X+,R30
                 	ST   X+,R31
                 	ST   X+,R22
                 	ST   X,R23
                 	.ENDM
                 
                 	.MACRO __MULBRR
                 	MULS R@0,R@1
                 	MOVW R30,R0
                 	.ENDM
                 
                 	.MACRO __MULBRRU
                 	MUL  R@0,R@1
                 	MOVW R30,R0
                 	.ENDM
                 
                 	.MACRO __MULBRR0
                 	MULS R@0,R@1
                 	.ENDM
                 
                 	.MACRO __MULBRRU0
                 	MUL  R@0,R@1
                 	.ENDM
                 
                 	.MACRO __MULBNWRU
                 	LDI  R26,@2
                 	MUL  R26,R@0
                 	MOVW R30,R0
                 	MUL  R26,R@1
                 	ADD  R31,R0
                 	.ENDM
                 
                 ;NAME DEFINITIONS FOR GLOBAL VARIABLES ALLOCATED TO REGISTERS
                 	.DEF _i=R3
                 	.DEF _i_msb=R4
                 	.DEF _a=R5
                 	.DEF _a_msb=R6
                 	.DEF _n=R7
                 	.DEF _n_msb=R8
                 	.DEF _time=R9
                 	.DEF _time_msb=R10
                 	.DEF _met=R11
                 	.DEF _met_msb=R12
                 	.DEF _x=R13
                 	.DEF _x_msb=R14
                 
                 ;GPIOR0 INITIALIZATION VALUE
                 	.EQU __GPIOR0_INIT=0x00
                 
                 	.CSEG
                 	.ORG 0x00
                 
                 ;START OF CODE MARKER
                 __START_OF_CODE:
                 
                 ;INTERRUPT VECTORS
000000 940c 04a4 	JMP  __RESET
000002 940c 0000 	JMP  0x00
000004 940c 0000 	JMP  0x00
000006 940c 0000 	JMP  0x00
000008 940c 0000 	JMP  0x00
00000a 940c 0000 	JMP  0x00
00000c 940c 0000 	JMP  0x00
00000e 940c 0000 	JMP  0x00
000010 940c 0000 	JMP  0x00
000012 940c 0000 	JMP  0x00
000014 940c 0000 	JMP  0x00
000016 940c 0000 	JMP  0x00
000018 940c 0000 	JMP  0x00
00001a 940c 0000 	JMP  0x00
00001c 940c 0000 	JMP  0x00
00001e 940c 0000 	JMP  0x00
000020 940c 0000 	JMP  0x00
000022 940c 0000 	JMP  0x00
000024 940c 0000 	JMP  0x00
000026 940c 0000 	JMP  0x00
000028 940c 0000 	JMP  0x00
00002a 940c 0000 	JMP  0x00
00002c 940c 0000 	JMP  0x00
00002e 940c 0000 	JMP  0x00
000030 940c 09cc 	JMP  _twi_int_handler
000032 940c 0000 	JMP  0x00
                 
                 _font:
000034 0000
000035 0000
000036 3e00
000037 4f5b      	.DB  0x0,0x0,0x0,0x0,0x0,0x3E,0x5B,0x4F
000038 3e5b
000039 6b3e
00003a 6b4f
00003b 1c3e      	.DB  0x5B,0x3E,0x3E,0x6B,0x4F,0x6B,0x3E,0x1C
00003c 7c3e
00003d 1c3e
00003e 3c18
00003f 3c7e      	.DB  0x3E,0x7C,0x3E,0x1C,0x18,0x3C,0x7E,0x3C
000040 1c18
000041 7d57
000042 1c57
000043 5e1c      	.DB  0x18,0x1C,0x57,0x7D,0x57,0x1C,0x1C,0x5E
000044 5e7f
000045 001c
000046 3c18
000047 0018      	.DB  0x7F,0x5E,0x1C,0x0,0x18,0x3C,0x18,0x0
000048 e7ff
000049 e7c3
00004a 00ff
00004b 2418      	.DB  0xFF,0xE7,0xC3,0xE7,0xFF,0x0,0x18,0x24
00004c 0018
00004d e7ff
00004e e7db
00004f 30ff      	.DB  0x18,0x0,0xFF,0xE7,0xDB,0xE7,0xFF,0x30
000050 3a48
000051 0e06
000052 2926
000053 2979      	.DB  0x48,0x3A,0x6,0xE,0x26,0x29,0x79,0x29
000054 4026
000055 057f
000056 0705
000057 7f40      	.DB  0x26,0x40,0x7F,0x5,0x5,0x7,0x40,0x7F
000058 2505
000059 5a3f
00005a e73c
00005b 5a3c      	.DB  0x5,0x25,0x3F,0x5A,0x3C,0xE7,0x3C,0x5A
00005c 3e7f
00005d 1c1c
00005e 0808
00005f 1c1c      	.DB  0x7F,0x3E,0x1C,0x1C,0x8,0x8,0x1C,0x1C
000060 7f3e
000061 2214
000062 227f
000063 5f14      	.DB  0x3E,0x7F,0x14,0x22,0x7F,0x22,0x14,0x5F
000064 005f
000065 5f5f
000066 0906
000067 017f      	.DB  0x5F,0x0,0x5F,0x5F,0x6,0x9,0x7F,0x1
000068 007f
000069 8966
00006a 6a95
00006b 6060      	.DB  0x7F,0x0,0x66,0x89,0x95,0x6A,0x60,0x60
00006c 6060
00006d 9460
00006e ffa2
00006f 94a2      	.DB  0x60,0x60,0x60,0x94,0xA2,0xFF,0xA2,0x94
000070 0408
000071 047e
000072 1008
000073 7e20      	.DB  0x8,0x4,0x7E,0x4,0x8,0x10,0x20,0x7E
000074 1020
000075 0808
000076 1c2a
000077 0808      	.DB  0x20,0x10,0x8,0x8,0x2A,0x1C,0x8,0x8
000078 2a1c
000079 0808
00007a 101e
00007b 1010      	.DB  0x1C,0x2A,0x8,0x8,0x1E,0x10,0x10,0x10
00007c 0c10
00007d 0c1e
00007e 0c1e
00007f 3830      	.DB  0x10,0xC,0x1E,0xC,0x1E,0xC,0x30,0x38
000080 383e
000081 0630
000082 3e0e
000083 060e      	.DB  0x3E,0x38,0x30,0x6,0xE,0x3E,0xE,0x6
000084 0000
000085 0000
000086 0000
000087 5f00      	.DB  0x0,0x0,0x0,0x0,0x0,0x0,0x0,0x5F
000088 0000
000089 0700
00008a 0700
00008b 1400      	.DB  0x0,0x0,0x0,0x7,0x0,0x7,0x0,0x14
00008c 147f
00008d 147f
00008e 2a24
00008f 2a7f      	.DB  0x7F,0x14,0x7F,0x14,0x24,0x2A,0x7F,0x2A
000090 2312
000091 0813
000092 6264
000093 4936      	.DB  0x12,0x23,0x13,0x8,0x64,0x62,0x36,0x49
000094 2056
000095 0050
000096 0708
000097 0003      	.DB  0x56,0x20,0x50,0x0,0x8,0x7,0x3,0x0
000098 1c00
000099 4122
00009a 0000
00009b 2241      	.DB  0x0,0x1C,0x22,0x41,0x0,0x0,0x41,0x22
00009c 001c
00009d 1c2a
00009e 1c7f
00009f 082a      	.DB  0x1C,0x0,0x2A,0x1C,0x7F,0x1C,0x2A,0x8
0000a0 3e08
0000a1 0808
0000a2 8000
0000a3 3070      	.DB  0x8,0x3E,0x8,0x8,0x0,0x80,0x70,0x30
0000a4 0800
0000a5 0808
0000a6 0808
0000a7 0000      	.DB  0x0,0x8,0x8,0x8,0x8,0x8,0x0,0x0
0000a8 6060
0000a9 2000
0000aa 0810
0000ab 0204      	.DB  0x60,0x60,0x0,0x20,0x10,0x8,0x4,0x2
0000ac 513e
0000ad 4549
0000ae 003e
0000af 7f42      	.DB  0x3E,0x51,0x49,0x45,0x3E,0x0,0x42,0x7F
0000b0 0040
0000b1 4972
0000b2 4949
0000b3 2146      	.DB  0x40,0x0,0x72,0x49,0x49,0x49,0x46,0x21
0000b4 4941
0000b5 334d
0000b6 1418
0000b7 7f12      	.DB  0x41,0x49,0x4D,0x33,0x18,0x14,0x12,0x7F
0000b8 2710
0000b9 4545
0000ba 3945
0000bb 4a3c      	.DB  0x10,0x27,0x45,0x45,0x45,0x39,0x3C,0x4A
0000bc 4949
0000bd 4131
0000be 1121
0000bf 0709      	.DB  0x49,0x49,0x31,0x41,0x21,0x11,0x9,0x7
0000c0 4936
0000c1 4949
0000c2 4636
0000c3 4949      	.DB  0x36,0x49,0x49,0x49,0x36,0x46,0x49,0x49
0000c4 1e29
0000c5 0000
0000c6 0014
0000c7 0000      	.DB  0x29,0x1E,0x0,0x0,0x14,0x0,0x0,0x0
0000c8 3440
0000c9 0000
0000ca 0800
0000cb 2214      	.DB  0x40,0x34,0x0,0x0,0x0,0x8,0x14,0x22
0000cc 1441
0000cd 1414
0000ce 1414
0000cf 4100      	.DB  0x41,0x14,0x14,0x14,0x14,0x14,0x0,0x41
0000d0 1422
0000d1 0208
0000d2 5901
0000d3 0609      	.DB  0x22,0x14,0x8,0x2,0x1,0x59,0x9,0x6
0000d4 413e
0000d5 595d
0000d6 7c4e
0000d7 1112      	.DB  0x3E,0x41,0x5D,0x59,0x4E,0x7C,0x12,0x11
0000d8 7c12
0000d9 497f
0000da 4949
0000db 3e36      	.DB  0x12,0x7C,0x7F,0x49,0x49,0x49,0x36,0x3E
0000dc 4141
0000dd 2241
0000de 417f
0000df 4141      	.DB  0x41,0x41,0x41,0x22,0x7F,0x41,0x41,0x41
0000e0 7f3e
0000e1 4949
0000e2 4149
0000e3 097f      	.DB  0x3E,0x7F,0x49,0x49,0x49,0x41,0x7F,0x9
0000e4 0909
0000e5 3e01
0000e6 4141
0000e7 7351      	.DB  0x9,0x9,0x1,0x3E,0x41,0x41,0x51,0x73
0000e8 087f
0000e9 0808
0000ea 007f
0000eb 7f41      	.DB  0x7F,0x8,0x8,0x8,0x7F,0x0,0x41,0x7F
0000ec 0041
0000ed 4020
0000ee 3f41
0000ef 7f01      	.DB  0x41,0x0,0x20,0x40,0x41,0x3F,0x1,0x7F
0000f0 1408
0000f1 4122
0000f2 407f
0000f3 4040      	.DB  0x8,0x14,0x22,0x41,0x7F,0x40,0x40,0x40
0000f4 7f40
0000f5 1c02
0000f6 7f02
0000f7 047f      	.DB  0x40,0x7F,0x2,0x1C,0x2,0x7F,0x7F,0x4
0000f8 1008
0000f9 3e7f
0000fa 4141
0000fb 3e41      	.DB  0x8,0x10,0x7F,0x3E,0x41,0x41,0x41,0x3E
0000fc 097f
0000fd 0909
0000fe 3e06
0000ff 5141      	.DB  0x7F,0x9,0x9,0x9,0x6,0x3E,0x41,0x51
000100 5e21
000101 097f
000102 2919
000103 2646      	.DB  0x21,0x5E,0x7F,0x9,0x19,0x29,0x46,0x26
000104 4949
000105 3249
000106 0103
000107 017f      	.DB  0x49,0x49,0x49,0x32,0x3,0x1,0x7F,0x1
000108 3f03
000109 4040
00010a 3f40
00010b 201f      	.DB  0x3,0x3F,0x40,0x40,0x40,0x3F,0x1F,0x20
00010c 2040
00010d 3f1f
00010e 3840
00010f 3f40      	.DB  0x40,0x20,0x1F,0x3F,0x40,0x38,0x40,0x3F
000110 1463
000111 1408
000112 0363
000113 7804      	.DB  0x63,0x14,0x8,0x14,0x63,0x3,0x4,0x78
000114 0304
000115 5961
000116 4d49
000117 0043      	.DB  0x4,0x3,0x61,0x59,0x49,0x4D,0x43,0x0
000118 417f
000119 4141
00011a 0402
00011b 1008      	.DB  0x7F,0x41,0x41,0x41,0x2,0x4,0x8,0x10
00011c 0020
00011d 4141
00011e 7f41
00011f 0204      	.DB  0x20,0x0,0x41,0x41,0x41,0x7F,0x4,0x2
000120 0201
000121 4004
000122 4040
000123 4040      	.DB  0x1,0x2,0x4,0x40,0x40,0x40,0x40,0x40
000124 0300
000125 0807
000126 2000
000127 5454      	.DB  0x0,0x3,0x7,0x8,0x0,0x20,0x54,0x54
000128 4078
000129 287f
00012a 4444
00012b 3838      	.DB  0x78,0x40,0x7F,0x28,0x44,0x44,0x38,0x38
00012c 4444
00012d 2844
00012e 4438
00012f 2844      	.DB  0x44,0x44,0x44,0x28,0x38,0x44,0x44,0x28
000130 387f
000131 5454
000132 1854
000133 0800      	.DB  0x7F,0x38,0x54,0x54,0x54,0x18,0x0,0x8
000134 097e
000135 1802
000136 a4a4
000137 789c      	.DB  0x7E,0x9,0x2,0x18,0xA4,0xA4,0x9C,0x78
000138 087f
000139 0404
00013a 0078
00013b 7d44      	.DB  0x7F,0x8,0x4,0x4,0x78,0x0,0x44,0x7D
00013c 0040
00013d 4020
00013e 3d40
00013f 7f00      	.DB  0x40,0x0,0x20,0x40,0x40,0x3D,0x0,0x7F
000140 2810
000141 0044
000142 4100
000143 407f      	.DB  0x10,0x28,0x44,0x0,0x0,0x41,0x7F,0x40
000144 7c00
000145 7804
000146 7804
000147 087c      	.DB  0x0,0x7C,0x4,0x78,0x4,0x78,0x7C,0x8
000148 0404
000149 3878
00014a 4444
00014b 3844      	.DB  0x4,0x4,0x78,0x38,0x44,0x44,0x44,0x38
00014c 18fc
00014d 2424
00014e 1818
00014f 2424      	.DB  0xFC,0x18,0x24,0x24,0x18,0x18,0x24,0x24
000150 fc18
000151 087c
000152 0404
000153 4808      	.DB  0x18,0xFC,0x7C,0x8,0x4,0x4,0x8,0x48
000154 5454
000155 2454
000156 0404
000157 443f      	.DB  0x54,0x54,0x54,0x24,0x4,0x4,0x3F,0x44
000158 3c24
000159 4040
00015a 7c20
00015b 201c      	.DB  0x24,0x3C,0x40,0x40,0x20,0x7C,0x1C,0x20
00015c 2040
00015d 3c1c
00015e 3040
00015f 3c40      	.DB  0x40,0x20,0x1C,0x3C,0x40,0x30,0x40,0x3C
000160 2844
000161 2810
000162 4c44
000163 9090      	.DB  0x44,0x28,0x10,0x28,0x44,0x4C,0x90,0x90
000164 7c90
000165 6444
000166 4c54
000167 0044      	.DB  0x90,0x7C,0x44,0x64,0x54,0x4C,0x44,0x0
000168 3608
000169 0041
00016a 0000
00016b 0077      	.DB  0x8,0x36,0x41,0x0,0x0,0x0,0x77,0x0
00016c 0000
00016d 3641
00016e 0008
00016f 0102      	.DB  0x0,0x0,0x41,0x36,0x8,0x0,0x2,0x1
000170 0402
000171 3c02
000172 2326
000173 3c26      	.DB  0x2,0x4,0x2,0x3C,0x26,0x23,0x26,0x3C
000174 0000
000175 0000
000176 7f00
000177 0101      	.DB  0x0,0x0,0x0,0x0,0x0,0x7F,0x1,0x1
000178 0301
000179 0000
00017a 0000
00017b 0000      	.DB  0x1,0x3,0x0,0x0,0x0,0x0,0x0,0x0
00017c 0000
00017d 0000
00017e 0000
00017f 0000      	.DB  0x0,0x0,0x0,0x0,0x0,0x0,0x0,0x0
000180 0000
000181 0000
000182 0000
000183 0000      	.DB  0x0,0x0,0x0,0x0,0x0,0x0,0x0,0x0
000184 0000
000185 0000
000186 0000
000187 0000      	.DB  0x0,0x0,0x0,0x0,0x0,0x0,0x0,0x0
000188 0000
000189 0000
00018a 0000
00018b 0000      	.DB  0x0,0x0,0x0,0x0,0x0,0x0,0x0,0x0
00018c 0000
00018d 0000
00018e 0000
00018f 0000      	.DB  0x0,0x0,0x0,0x0,0x0,0x0,0x0,0x0
000190 0000
000191 0000
000192 0000
000193 0000      	.DB  0x0,0x0,0x0,0x0,0x0,0x0,0x0,0x0
000194 0000
000195 0000
000196 0000
000197 0000      	.DB  0x0,0x0,0x0,0x0,0x0,0x0,0x0,0x0
000198 0000
000199 0000
00019a 0000
00019b 0000      	.DB  0x0,0x0,0x0,0x0,0x0,0x0,0x0,0x0
00019c 0000
00019d 0000
00019e 0000
00019f 0000      	.DB  0x0,0x0,0x0,0x0,0x0,0x0,0x0,0x0
0001a0 0000
0001a1 0000
0001a2 0000
0001a3 0000      	.DB  0x0,0x0,0x0,0x0,0x0,0x0,0x0,0x0
0001a4 0000
0001a5 0000
0001a6 0000
0001a7 0000      	.DB  0x0,0x0,0x0,0x0,0x0,0x0,0x0,0x0
0001a8 0000
0001a9 0000
0001aa 0000
0001ab 0000      	.DB  0x0,0x0,0x0,0x0,0x0,0x0,0x0,0x0
0001ac 0000
0001ad 0000
0001ae 0000
0001af 0000      	.DB  0x0,0x0,0x0,0x0,0x0,0x0,0x0,0x0
0001b0 0000
0001b1 0000
0001b2 0000
0001b3 0000      	.DB  0x0,0x0,0x0,0x0,0x0,0x0,0x0,0x0
0001b4 0000
0001b5 0000
0001b6 0000
0001b7 0000      	.DB  0x0,0x0,0x0,0x0,0x0,0x0,0x0,0x0
0001b8 0000
0001b9 0000
0001ba 0000
0001bb 0000      	.DB  0x0,0x0,0x0,0x0,0x0,0x0,0x0,0x0
0001bc 0000
0001bd 0000
0001be 0000
0001bf 0000      	.DB  0x0,0x0,0x0,0x0,0x0,0x0,0x0,0x0
0001c0 0000
0001c1 0000
0001c2 0000
0001c3 0000      	.DB  0x0,0x0,0x0,0x0,0x0,0x0,0x0,0x0
0001c4 0000
0001c5 0000
0001c6 0000
0001c7 0000      	.DB  0x0,0x0,0x0,0x0,0x0,0x0,0x0,0x0
0001c8 0000
0001c9 0000
0001ca 0000
0001cb 0000      	.DB  0x0,0x0,0x0,0x0,0x0,0x0,0x0,0x0
0001cc 0000
0001cd 0000
0001ce 0000
0001cf 0000      	.DB  0x0,0x0,0x0,0x0,0x0,0x0,0x0,0x0
0001d0 7f00
0001d1 0101
0001d2 0301
0001d3 0000      	.DB  0x0,0x7F,0x1,0x1,0x1,0x3,0x0,0x0
0001d4 0000
0001d5 0000
0001d6 0000
0001d7 0000      	.DB  0x0,0x0,0x0,0x0,0x0,0x0,0x0,0x0
0001d8 497f
0001d9 4949
0001da 0049
0001db 0000      	.DB  0x7F,0x49,0x49,0x49,0x49,0x0,0x0,0x0
0001dc 0000
0001dd 493e
0001de 4149
0001df 0022      	.DB  0x0,0x0,0x3E,0x49,0x49,0x41,0x22,0x0
0001e0 0000
0001e1 0000
0001e2 0000
0001e3 0000      	.DB  0x0,0x0,0x0,0x0,0x0,0x0,0x0,0x0
0001e4 0000
0001e5 0000
0001e6 0000
0001e7 0000      	.DB  0x0,0x0,0x0,0x0,0x0,0x0,0x0,0x0
0001e8 0000
0001e9 0000
0001ea 7e43
0001eb 0043      	.DB  0x0,0x0,0x0,0x0,0x43,0x7E,0x43,0x0
0001ec 0000
0001ed 0000
0001ee 0000
0001ef 0000      	.DB  0x0,0x0,0x0,0x0,0x0,0x0,0x0,0x0
0001f0 0000
0001f1 4100
0001f2 417f
0001f3 0000      	.DB  0x0,0x0,0x0,0x41,0x7F,0x41,0x0,0x0
0001f4 7d44
0001f5 0040
0001f6 047c
0001f7 0404      	.DB  0x44,0x7D,0x40,0x0,0x7C,0x4,0x4,0x4
0001f8 000c
0001f9 0000
0001fa 0000
0001fb 0000      	.DB  0xC,0x0,0x0,0x0,0x0,0x0,0x0,0x0
0001fc 0000
0001fd 0000
0001fe 0000
0001ff 0000      	.DB  0x0,0x0,0x0,0x0,0x0,0x0,0x0,0x0
000200 5438
000201 5454
000202 0008
000203 0000      	.DB  0x38,0x54,0x54,0x54,0x8,0x0,0x0,0x0
000204 0000
000205 5438
000206 4454
000207 0028      	.DB  0x0,0x0,0x38,0x54,0x54,0x44,0x28,0x0
000208 0000
000209 0000
00020a 0000
00020b 0000      	.DB  0x0,0x0,0x0,0x0,0x0,0x0,0x0,0x0
00020c 0000
00020d 0000
00020e 0000
00020f 0000      	.DB  0x0,0x0,0x0,0x0,0x0,0x0,0x0,0x0
000210 0000
000211 0000
000212 7c45
000213 0041      	.DB  0x0,0x0,0x0,0x0,0x45,0x7C,0x41,0x0
000214 117e
000215 1111
000216 7f7e
000217 4949      	.DB  0x7E,0x11,0x11,0x11,0x7E,0x7F,0x49,0x49
000218 3349
000219 497f
00021a 4949
00021b 7f36      	.DB  0x49,0x33,0x7F,0x49,0x49,0x49,0x36,0x7F
00021c 0101
00021d 0301
00021e 51e0
00021f 414f      	.DB  0x1,0x1,0x1,0x3,0xE0,0x51,0x4F,0x41
000220 7fff
000221 4949
000222 4949
000223 0877      	.DB  0xFF,0x7F,0x49,0x49,0x49,0x49,0x77,0x8
000224 087f
000225 4977
000226 4949
000227 3649      	.DB  0x7F,0x8,0x77,0x49,0x49,0x49,0x49,0x36
000228 107f
000229 0408
00022a 7c7f
00022b 1221      	.DB  0x7F,0x10,0x8,0x4,0x7F,0x7C,0x21,0x12
00022c 7c09
00022d 087f
00022e 2214
00022f 2041      	.DB  0x9,0x7C,0x7F,0x8,0x14,0x22,0x41,0x20
000230 3f41
000231 7f01
000232 027f
000233 020c      	.DB  0x41,0x3F,0x1,0x7F,0x7F,0x2,0xC,0x2
000234 7f7f
000235 0808
000236 7f08
000237 413e      	.DB  0x7F,0x7F,0x8,0x8,0x8,0x7F,0x3E,0x41
000238 4141
000239 7f3e
00023a 0101
00023b 7f01      	.DB  0x41,0x41,0x3E,0x7F,0x1,0x1,0x1,0x7F
00023c 097f
00023d 0909
00023e 3e06
00023f 4141      	.DB  0x7F,0x9,0x9,0x9,0x6,0x3E,0x41,0x41
000240 2241
000241 0101
000242 017f
000243 2701      	.DB  0x41,0x22,0x1,0x1,0x7F,0x1,0x1,0x27
000244 4848
000245 3f48
000246 221c
000247 227f      	.DB  0x48,0x48,0x48,0x3F,0x1C,0x22,0x7F,0x22
000248 631c
000249 0814
00024a 6314
00024b 407f      	.DB  0x1C,0x63,0x14,0x8,0x14,0x63,0x7F,0x40
00024c 4040
00024d 07ff
00024e 0808
00024f 7f08      	.DB  0x40,0x40,0xFF,0x7,0x8,0x8,0x8,0x7F
000250 407f
000251 407f
000252 7f7f
000253 7f40      	.DB  0x7F,0x40,0x7F,0x40,0x7F,0x7F,0x40,0x7F
000254 ff40
000255 7f01
000256 4848
000257 7f30      	.DB  0x40,0xFF,0x1,0x7F,0x48,0x48,0x30,0x7F
000258 3048
000259 7f00
00025a 487f
00025b 3048      	.DB  0x48,0x30,0x0,0x7F,0x7F,0x48,0x48,0x30
00025c 2200
00025d 4941
00025e 3e49
00025f 087f      	.DB  0x0,0x22,0x41,0x49,0x49,0x3E,0x7F,0x8
000260 413e
000261 463e
000262 1929
000263 7f09      	.DB  0x3E,0x41,0x3E,0x46,0x29,0x19,0x9,0x7F
000264 5420
000265 5454
000266 3c78
000267 4a4a      	.DB  0x20,0x54,0x54,0x54,0x78,0x3C,0x4A,0x4A
000268 3149
000269 547c
00026a 2854
00026b 7c00      	.DB  0x49,0x31,0x7C,0x54,0x54,0x28,0x0,0x7C
00026c 0404
00026d 0c04
00026e 54e0
00026f 444c      	.DB  0x4,0x4,0x4,0xC,0xE0,0x54,0x4C,0x44
000270 38fc
000271 5454
000272 0854
000273 106c      	.DB  0xFC,0x38,0x54,0x54,0x54,0x8,0x6C,0x10
000274 107c
000275 446c
000276 5444
000277 2854      	.DB  0x7C,0x10,0x6C,0x44,0x44,0x54,0x54,0x28
000278 207c
000279 0810
00027a 787c
00027b 2442      	.DB  0x7C,0x20,0x10,0x8,0x7C,0x78,0x42,0x24
00027c 7812
00027d 107c
00027e 4428
00027f 2000      	.DB  0x12,0x78,0x7C,0x10,0x28,0x44,0x0,0x20
000280 3c44
000281 7c04
000282 087c
000283 0810      	.DB  0x44,0x3C,0x4,0x7C,0x7C,0x8,0x10,0x8
000284 7c7c
000285 1010
000286 7c10
000287 4438      	.DB  0x7C,0x7C,0x10,0x10,0x10,0x7C,0x38,0x44
000288 4444
000289 7c38
00028a 0404
00028b 7c04      	.DB  0x44,0x44,0x38,0x7C,0x4,0x4,0x4,0x7C
00028c 147c
00028d 1414
00028e 3808
00028f 4444      	.DB  0x7C,0x14,0x14,0x14,0x8,0x38,0x44,0x44
000290 4444
000291 0404
000292 047c
000293 0c04      	.DB  0x44,0x44,0x4,0x4,0x7C,0x4,0x4,0xC
000294 5050
000295 3c50
000296 2418
000297 247e      	.DB  0x50,0x50,0x50,0x3C,0x18,0x24,0x7E,0x24
000298 4418
000299 1028
00029a 4428
00029b 407c      	.DB  0x18,0x44,0x28,0x10,0x28,0x44,0x7C,0x40
00029c 4040
00029d 0cfc
00029e 1010
00029f 7c10      	.DB  0x40,0x40,0xFC,0xC,0x10,0x10,0x10,0x7C
0002a0 407c
0002a1 407c
0002a2 7c7c
0002a3 7c40      	.DB  0x7C,0x40,0x7C,0x40,0x7C,0x7C,0x40,0x7C
0002a4 fc40
0002a5 7c04
0002a6 5050
0002a7 7c20      	.DB  0x40,0xFC,0x4,0x7C,0x50,0x50,0x20,0x7C
0002a8 2050
0002a9 7c00
0002aa 507c
0002ab 2050      	.DB  0x50,0x20,0x0,0x7C,0x7C,0x50,0x50,0x20
0002ac 2800
0002ad 5444
0002ae 3854
0002af 107c      	.DB  0x0,0x28,0x44,0x54,0x54,0x38,0x7C,0x10
0002b0 4438
0002b1 0838
0002b2 3454
0002b3 7c14      	.DB  0x38,0x44,0x38,0x8,0x54,0x34,0x14,0x7C
                 
                 _0x3:
0002b4 0000
0002b5 0000
0002b6 0000
0002b7 0000      	.DB  0x0,0x0,0x0,0x0,0x0,0x0,0x0,0x0
0002b8 0000
0002b9 0000
0002ba 0000
0002bb 0000      	.DB  0x0,0x0,0x0,0x0,0x0,0x0,0x0,0x0
0002bc 0000
0002bd 0000
0002be 0000
0002bf 0000      	.DB  0x0,0x0,0x0,0x0,0x0,0x0,0x0,0x0
0002c0 0000
0002c1 0000
0002c2 0000
0002c3 0000      	.DB  0x0,0x0,0x0,0x0,0x0,0x0,0x0,0x0
0002c4 0000
0002c5 0000
0002c6 0000
0002c7 0000      	.DB  0x0,0x0,0x0,0x0,0x0,0x0,0x0,0x0
0002c8 0000
0002c9 0000
0002ca 0000
0002cb 0000      	.DB  0x0,0x0,0x0,0x0,0x0,0x0,0x0,0x0
0002cc 0000
0002cd 0000
0002ce 0000
0002cf 0000      	.DB  0x0,0x0,0x0,0x0,0x0,0x0,0x0,0x0
0002d0 0000
0002d1 0000
0002d2 0000
0002d3 8000      	.DB  0x0,0x0,0x0,0x0,0x0,0x0,0x0,0x80
0002d4 8080
0002d5 0000
0002d6 0000
0002d7 0000      	.DB  0x80,0x80,0x0,0x0,0x0,0x0,0x0,0x0
0002d8 0000
0002d9 0000
0002da 0000
0002db 0000      	.DB  0x0,0x0,0x0,0x0,0x0,0x0,0x0,0x0
0002dc 8000
0002dd c080
0002de 00c0
0002df 0000      	.DB  0x0,0x80,0x80,0xC0,0xC0,0x0,0x0,0x0
0002e0 0000
0002e1 0000
0002e2 0000
0002e3 0000      	.DB  0x0,0x0,0x0,0x0,0x0,0x0,0x0,0x0
0002e4 0000
0002e5 0000
0002e6 0000
0002e7 0000      	.DB  0x0,0x0,0x0,0x0,0x0,0x0,0x0,0x0
0002e8 0000
0002e9 0000
0002ea 0000
0002eb 0000      	.DB  0x0,0x0,0x0,0x0,0x0,0x0,0x0,0x0
0002ec 0000
0002ed 0000
0002ee 0000
0002ef 0000      	.DB  0x0,0x0,0x0,0x0,0x0,0x0,0x0,0x0
0002f0 0000
0002f1 0000
0002f2 0000
0002f3 0000      	.DB  0x0,0x0,0x0,0x0,0x0,0x0,0x0,0x0
0002f4 0000
0002f5 0000
0002f6 0000
0002f7 0000      	.DB  0x0,0x0,0x0,0x0,0x0,0x0,0x0,0x0
0002f8 0000
0002f9 0000
0002fa 0000
0002fb 0000      	.DB  0x0,0x0,0x0,0x0,0x0,0x0,0x0,0x0
0002fc 0000
0002fd 0000
0002fe c080
0002ff f0e0      	.DB  0x0,0x0,0x0,0x0,0x80,0xC0,0xE0,0xF0
000300 fcf8
000301 e0f8
000302 0000
000303 0000      	.DB  0xF8,0xFC,0xF8,0xE0,0x0,0x0,0x0,0x0
000304 0000
000305 0000
000306 0000
000307 0000      	.DB  0x0,0x0,0x0,0x0,0x0,0x0,0x0,0x0
000308 0000
000309 0000
00030a 8000
00030b 8080      	.DB  0x0,0x0,0x0,0x0,0x0,0x80,0x80,0x80
00030c 8080
00030d 8000
00030e 0080
00030f 0000      	.DB  0x80,0x80,0x0,0x80,0x80,0x0,0x0,0x0
000310 8000
000311 8080
000312 8080
000313 ff00      	.DB  0x0,0x80,0x80,0x80,0x80,0x80,0x0,0xFF
000314 ffff
000315 0000
000316 0000
000317 8080      	.DB  0xFF,0xFF,0x0,0x0,0x0,0x0,0x80,0x80
000318 8080
000319 0000
00031a 8080
00031b 0000      	.DB  0x80,0x80,0x0,0x0,0x80,0x80,0x0,0x0
00031c ff80
00031d 80ff
00031e 0080
00031f 8080      	.DB  0x80,0xFF,0xFF,0x80,0x80,0x0,0x80,0x80
000320 8000
000321 8080
000322 0080
000323 8080      	.DB  0x0,0x80,0x80,0x80,0x80,0x0,0x80,0x80
000324 0000
000325 0000
000326 8000
000327 0080      	.DB  0x0,0x0,0x0,0x0,0x0,0x80,0x80,0x0
000328 8c00
000329 848e
00032a 0000
00032b f880      	.DB  0x0,0x8C,0x8E,0x84,0x0,0x0,0x80,0xF8
00032c f8f8
00032d 0080
00032e 0000
00032f 0000      	.DB  0xF8,0xF8,0x80,0x0,0x0,0x0,0x0,0x0
000330 0000
000331 0000
000332 0000
000333 0000      	.DB  0x0,0x0,0x0,0x0,0x0,0x0,0x0,0x0
000334 f0f0
000335 f0f0
000336 f0f0
000337 f0f0      	.DB  0xF0,0xF0,0xF0,0xF0,0xF0,0xF0,0xF0,0xF0
000338 f0f0
000339 f0f0
00033a e0e0
00033b 80c0      	.DB  0xF0,0xF0,0xF0,0xF0,0xE0,0xE0,0xC0,0x80
00033c e000
00033d fefc
00033e ffff
00033f 7fff      	.DB  0x0,0xE0,0xFC,0xFE,0xFF,0xFF,0xFF,0x7F
000340 ffff
000341 ffff
000342 00ff
000343 0000      	.DB  0xFF,0xFF,0xFF,0xFF,0xFF,0x0,0x0,0x0
000344 0000
000345 0000
000346 0000
000347 0000      	.DB  0x0,0x0,0x0,0x0,0x0,0x0,0x0,0x0
000348 0000
000349 fe00
00034a c7ff
00034b 0101      	.DB  0x0,0x0,0x0,0xFE,0xFF,0xC7,0x1,0x1
00034c 0101
00034d ff83
00034e 00ff
00034f 7c00      	.DB  0x1,0x1,0x83,0xFF,0xFF,0x0,0x0,0x7C
000350 c7fe
000351 0101
000352 0101
000353 ff83      	.DB  0xFE,0xC7,0x1,0x1,0x1,0x1,0x83,0xFF
000354 ffff
000355 3800
000356 c7fe
000357 0183      	.DB  0xFF,0xFF,0x0,0x38,0xFE,0xC7,0x83,0x1
000358 0101
000359 c783
00035a ffff
00035b 0000      	.DB  0x1,0x1,0x83,0xC7,0xFF,0xFF,0x0,0x0
00035c ff01
00035d 01ff
00035e 0001
00035f ffff      	.DB  0x1,0xFF,0xFF,0x1,0x1,0x0,0xFF,0xFF
000360 0107
000361 0101
000362 0000
000363 ff7f      	.DB  0x7,0x1,0x1,0x1,0x0,0x0,0x7F,0xFF
000364 0080
000365 0000
000366 ffff
000367 007f      	.DB  0x80,0x0,0x0,0x0,0xFF,0xFF,0x7F,0x0
000368 ff00
000369 ffff
00036a 0000
00036b ff01      	.DB  0x0,0xFF,0xFF,0xFF,0x0,0x0,0x1,0xFF
00036c ffff
00036d 0001
00036e 0000
00036f 0000      	.DB  0xFF,0xFF,0x1,0x0,0x0,0x0,0x0,0x0
000370 0000
000371 0000
000372 0000
000373 0000      	.DB  0x0,0x0,0x0,0x0,0x0,0x0,0x0,0x0
000374 0f03
000375 7f3f
000376 ff7f
000377 ffff      	.DB  0x3,0xF,0x3F,0x7F,0x7F,0xFF,0xFF,0xFF
000378 ffff
000379 ffff
00037a c7e7
00037b 8fc7      	.DB  0xFF,0xFF,0xFF,0xFF,0xE7,0xC7,0xC7,0x8F
00037c 9f8f
00037d ffbf
00037e c3ff
00037f f0c0      	.DB  0x8F,0x9F,0xBF,0xFF,0xFF,0xC3,0xC0,0xF0
000380 ffff
000381 ffff
000382 fcff
000383 fcfc      	.DB  0xFF,0xFF,0xFF,0xFF,0xFF,0xFC,0xFC,0xFC
000384 fcfc
000385 fcfc
000386 f8fc
000387 f0f8      	.DB  0xFC,0xFC,0xFC,0xFC,0xFC,0xF8,0xF8,0xF0
000388 e0f0
000389 00c0
00038a 0301
00038b 0303      	.DB  0xF0,0xE0,0xC0,0x0,0x1,0x3,0x3,0x3
00038c 0303
00038d 0301
00038e 0003
00038f 0000      	.DB  0x3,0x3,0x1,0x3,0x3,0x0,0x0,0x0
000390 0100
000391 0303
000392 0303
000393 0101      	.DB  0x0,0x1,0x3,0x3,0x3,0x3,0x1,0x1
000394 0103
000395 0000
000396 0100
000397 0303      	.DB  0x3,0x1,0x0,0x0,0x0,0x1,0x3,0x3
000398 0303
000399 0101
00039a 0303
00039b 0000      	.DB  0x3,0x3,0x1,0x1,0x3,0x3,0x0,0x0
00039c 0300
00039d 0003
00039e 0000
00039f 0303      	.DB  0x0,0x3,0x3,0x0,0x0,0x0,0x3,0x3
0003a0 0000
0003a1 0000
0003a2 0000
0003a3 0100      	.DB  0x0,0x0,0x0,0x0,0x0,0x0,0x0,0x1
0003a4 0303
0003a5 0303
0003a6 0103
0003a7 0000      	.DB  0x3,0x3,0x3,0x3,0x3,0x1,0x0,0x0
0003a8 0100
0003a9 0103
0003aa 0000
0003ab 0300      	.DB  0x0,0x1,0x3,0x1,0x0,0x0,0x0,0x3
0003ac 0103
0003ad 0000
0003ae 0000
0003af 0000      	.DB  0x3,0x1,0x0,0x0,0x0,0x0,0x0,0x0
0003b0 0000
0003b1 0000
0003b2 0000
0003b3 0000      	.DB  0x0,0x0,0x0,0x0,0x0,0x0,0x0,0x0
0003b4 0000
0003b5 8000
0003b6 e0c0
0003b7 f9f0      	.DB  0x0,0x0,0x0,0x80,0xC0,0xE0,0xF0,0xF9
0003b8 ffff
0003b9 ffff
0003ba 3fff
0003bb 0f1f      	.DB  0xFF,0xFF,0xFF,0xFF,0xFF,0x3F,0x1F,0xF
0003bc c787
0003bd fff7
0003be 1fff
0003bf 3d1f      	.DB  0x87,0xC7,0xF7,0xFF,0xFF,0x1F,0x1F,0x3D
0003c0 f8fc
0003c1 f8f8
0003c2 7cf8
0003c3 ff7d      	.DB  0xFC,0xF8,0xF8,0xF8,0xF8,0x7C,0x7D,0xFF
0003c4 ffff
0003c5 ffff
0003c6 ffff
0003c7 7fff      	.DB  0xFF,0xFF,0xFF,0xFF,0xFF,0xFF,0xFF,0x7F
0003c8 0f3f
0003c9 0007
0003ca 3030
0003cb 0000      	.DB  0x3F,0xF,0x7,0x0,0x30,0x30,0x0,0x0
0003cc 0000
0003cd 0000
0003ce 0000
0003cf 0000      	.DB  0x0,0x0,0x0,0x0,0x0,0x0,0x0,0x0
0003d0 0000
0003d1 0000
0003d2 0000
0003d3 0000      	.DB  0x0,0x0,0x0,0x0,0x0,0x0,0x0,0x0
0003d4 0000
0003d5 0000
0003d6 fefe
0003d7 00fc      	.DB  0x0,0x0,0x0,0x0,0xFE,0xFE,0xFC,0x0
0003d8 0000
0003d9 0000
0003da 0000
0003db 0000      	.DB  0x0,0x0,0x0,0x0,0x0,0x0,0x0,0x0
0003dc 0000
0003dd 0000
0003de 0000
0003df 0000      	.DB  0x0,0x0,0x0,0x0,0x0,0x0,0x0,0x0
0003e0 0000
0003e1 0000
0003e2 e000
0003e3 00c0      	.DB  0x0,0x0,0x0,0x0,0x0,0xE0,0xC0,0x0
0003e4 0000
0003e5 0000
0003e6 0000
0003e7 0000      	.DB  0x0,0x0,0x0,0x0,0x0,0x0,0x0,0x0
0003e8 0000
0003e9 3030
0003ea 0000
0003eb 0000      	.DB  0x0,0x0,0x30,0x30,0x0,0x0,0x0,0x0
0003ec 0000
0003ed 0000
0003ee 0000
0003ef 0000      	.DB  0x0,0x0,0x0,0x0,0x0,0x0,0x0,0x0
0003f0 0000
0003f1 0000
0003f2 0000
0003f3 0000      	.DB  0x0,0x0,0x0,0x0,0x0,0x0,0x0,0x0
0003f4 c000
0003f5 fffe
0003f6 ffff
0003f7 ffff      	.DB  0x0,0xC0,0xFE,0xFF,0xFF,0xFF,0xFF,0xFF
0003f8 ffff
0003f9 ffff
0003fa 7f7f
0003fb 1f3f      	.DB  0xFF,0xFF,0xFF,0xFF,0x7F,0x7F,0x3F,0x1F
0003fc 070f
0003fd 7f1f
0003fe ffff
0003ff f8f8      	.DB  0xF,0x7,0x1F,0x7F,0xFF,0xFF,0xF8,0xF8
000400 ffff
000401 ffff
000402 feff
000403 e0f8      	.DB  0xFF,0xFF,0xFF,0xFF,0xFF,0xFE,0xF8,0xE0
000404 0000
000405 0100
000406 0000
000407 0000      	.DB  0x0,0x0,0x0,0x1,0x0,0x0,0x0,0x0
000408 0000
000409 0000
00040a fefe
00040b 0000      	.DB  0x0,0x0,0x0,0x0,0xFE,0xFE,0x0,0x0
00040c fc00
00040d fcfe
00040e 060c
00040f 0e06      	.DB  0x0,0xFC,0xFE,0xFC,0xC,0x6,0x6,0xE
000410 f8fc
000411 0000
000412 f8f0
000413 0e1c      	.DB  0xFC,0xF8,0x0,0x0,0xF0,0xF8,0x1C,0xE
000414 0606
000415 0c06
000416 ffff
000417 00ff      	.DB  0x6,0x6,0x6,0xC,0xFF,0xFF,0xFF,0x0
000418 fe00
000419 00fe
00041a 0000
00041b fc00      	.DB  0x0,0xFE,0xFE,0x0,0x0,0x0,0x0,0xFC
00041c fcfe
00041d 1800
00041e 7e3c
00041f e666      	.DB  0xFE,0xFC,0x0,0x18,0x3C,0x7E,0x66,0xE6
000420 84ce
000421 0000
000422 ff06
000423 06ff      	.DB  0xCE,0x84,0x0,0x0,0x6,0xFF,0xFF,0x6
000424 fc06
000425 fcfe
000426 060c
000427 0606      	.DB  0x6,0xFC,0xFE,0xFC,0xC,0x6,0x6,0x6
000428 0000
000429 fefe
00042a 0000
00042b f8c0      	.DB  0x0,0x0,0xFE,0xFE,0x0,0x0,0xC0,0xF8
00042c 4efc
00042d 4646
00042e 4e46
00042f 787c      	.DB  0xFC,0x4E,0x46,0x46,0x46,0x4E,0x7C,0x78
000430 1840
000431 763c
000432 cee6
000433 80cc      	.DB  0x40,0x18,0x3C,0x76,0xE6,0xCE,0xCC,0x80
000434 0000
000435 0000
000436 0000
000437 0000      	.DB  0x0,0x0,0x0,0x0,0x0,0x0,0x0,0x0
000438 0000
000439 0000
00043a 0000
00043b 0000      	.DB  0x0,0x0,0x0,0x0,0x0,0x0,0x0,0x0
00043c 0000
00043d 0000
00043e 0701
00043f 1f0f      	.DB  0x0,0x0,0x0,0x0,0x1,0x7,0xF,0x1F
000440 3f1f
000441 3f3f
000442 1f3f
000443 030f      	.DB  0x1F,0x3F,0x3F,0x3F,0x3F,0x1F,0xF,0x3
000444 0000
000445 0000
000446 0000
000447 0000      	.DB  0x0,0x0,0x0,0x0,0x0,0x0,0x0,0x0
000448 0000
000449 0000
00044a 0f0f
00044b 0000      	.DB  0x0,0x0,0x0,0x0,0xF,0xF,0x0,0x0
00044c 0f00
00044d 0f0f
00044e 0000
00044f 0000      	.DB  0x0,0xF,0xF,0xF,0x0,0x0,0x0,0x0
000450 0f0f
000451 0000
000452 0703
000453 0c0e      	.DB  0xF,0xF,0x0,0x0,0x3,0x7,0xE,0xC
000454 1818
000455 060c
000456 0f0f
000457 000f      	.DB  0x18,0x18,0xC,0x6,0xF,0xF,0xF,0x0
000458 0100
000459 0e0f
00045a 180c
00045b 0f0c      	.DB  0x0,0x1,0xF,0xE,0xC,0x18,0xC,0xF
00045c 0107
00045d 0400
00045e 0c0e
00045f 0c18      	.DB  0x7,0x1,0x0,0x4,0xE,0xC,0x18,0xC
000460 070f
000461 0000
000462 0f00
000463 000f      	.DB  0xF,0x7,0x0,0x0,0x0,0xF,0xF,0x0
000464 0f00
000465 0f0f
000466 0000
000467 0000      	.DB  0x0,0xF,0xF,0xF,0x0,0x0,0x0,0x0
000468 0000
000469 0f0f
00046a 0000
00046b 0700      	.DB  0x0,0x0,0xF,0xF,0x0,0x0,0x0,0x7
00046c 0c07
00046d 180c
00046e 0c1c
00046f 0606      	.DB  0x7,0xC,0xC,0x18,0x1C,0xC,0x6,0x6
000470 0400
000471 0c0e
000472 0c18
000473 070f      	.DB  0x0,0x4,0xE,0xC,0x18,0xC,0xF,0x7
                 _0x29:
F:\Project\Micro\AVR\Oscill\Release\List\osc.asm(1416): warning: .cseg .db misalignment - padding zero byte
000474 0020      	.DB  0x20
                 _0x2A:
000475 ae80
000476 d580
000477 8080
000478 a880      	.DB  0x80,0xAE,0x80,0xD5,0x80,0x80,0x80,0xA8
000479 3f80
00047a d380
00047b 0080
00047c 4080      	.DB  0x80,0x3F,0x80,0xD3,0x80,0x0,0x80,0x40
00047d 8d80
00047e 1480
00047f 2080
000480 0080      	.DB  0x80,0x8D,0x80,0x14,0x80,0x20,0x80,0x0
000481 a180
000482 c880
000483 da80
000484 1280      	.DB  0x80,0xA1,0x80,0xC8,0x80,0xDA,0x80,0x12
000485 8180
000486 cf80
000487 d980
000488 f180      	.DB  0x80,0x81,0x80,0xCF,0x80,0xD9,0x80,0xF1
000489 db80
00048a 4080
00048b a480
00048c a680      	.DB  0x80,0xDB,0x80,0x40,0x80,0xA4,0x80,0xA6
00048d af80      	.DB  0x80,0xAF
                 _0x0:
00048e 3ad4
F:\Project\Micro\AVR\Oscill\Release\List\osc.asm(1426): warning: .cseg .db misalignment - padding zero byte
00048f 0000      	.DB  0xD4,0x3A,0x0
                 _0x2020003:
F:\Project\Micro\AVR\Oscill\Release\List\osc.asm(1428): warning: .cseg .db misalignment - padding zero byte
000490 0007      	.DB  0x7
                 
                 __GLOBAL_INI_TBL:
000491 0380      	.DW  0x380
000492 0306      	.DW  _buffer
000493 0568      	.DW  _0x3*2
                 
000494 0001      	.DW  0x01
000495 070a      	.DW  _y0
000496 08e8      	.DW  _0x29*2
                 
000497 0032      	.DW  0x32
000498 0794      	.DW  _tx_data0
000499 08ea      	.DW  _0x2A*2
                 
00049a 0003      	.DW  0x03
00049b 0300      	.DW  _0x48
00049c 091c      	.DW  _0x0*2
                 
00049d 0003      	.DW  0x03
00049e 0303      	.DW  _0x48+3
00049f 091c      	.DW  _0x0*2
                 
0004a0 0001      	.DW  0x01
0004a1 07c8      	.DW  _twi_result
0004a2 0920      	.DW  _0x2020003*2
                 
                 _0xFFFFFFFF:
0004a3 0000      	.DW  0
                 
                 #define __GLOBAL_INI_TBL_PRESENT 1
                 
                 __RESET:
0004a4 94f8      	CLI
0004a5 27ee      	CLR  R30
0004a6 bbef      	OUT  EECR,R30
                 
                 ;INTERRUPT VECTORS ARE PLACED
                 ;AT THE START OF FLASH
0004a7 e0f1      	LDI  R31,1
0004a8 bff5      	OUT  MCUCR,R31
0004a9 bfe5      	OUT  MCUCR,R30
                 
                 ;CLEAR R2-R14
0004aa e08d      	LDI  R24,(14-2)+1
0004ab e0a2      	LDI  R26,2
0004ac 27bb      	CLR  R27
                 __CLEAR_REG:
0004ad 93ed      	ST   X+,R30
0004ae 958a      	DEC  R24
0004af f7e9      	BRNE __CLEAR_REG
                 
                 ;CLEAR SRAM
0004b0 e080      	LDI  R24,LOW(__CLEAR_SRAM_SIZE)
0004b1 e098      	LDI  R25,HIGH(__CLEAR_SRAM_SIZE)
0004b2 e0a0      	LDI  R26,LOW(__SRAM_START)
0004b3 e0b1      	LDI  R27,HIGH(__SRAM_START)
                 __CLEAR_SRAM:
0004b4 93ed      	ST   X+,R30
0004b5 9701      	SBIW R24,1
0004b6 f7e9      	BRNE __CLEAR_SRAM
                 
                 ;GLOBAL VARIABLES INITIALIZATION
0004b7 e2e2      	LDI  R30,LOW(__GLOBAL_INI_TBL*2)
0004b8 e0f9      	LDI  R31,HIGH(__GLOBAL_INI_TBL*2)
                 __GLOBAL_INI_NEXT:
0004b9 9185      	LPM  R24,Z+
0004ba 9195      	LPM  R25,Z+
0004bb 9700      	SBIW R24,0
0004bc f061      	BREQ __GLOBAL_INI_END
0004bd 91a5      	LPM  R26,Z+
0004be 91b5      	LPM  R27,Z+
0004bf 9005      	LPM  R0,Z+
0004c0 9015      	LPM  R1,Z+
0004c1 01bf      	MOVW R22,R30
0004c2 01f0      	MOVW R30,R0
                 __GLOBAL_INI_LOOP:
0004c3 9005      	LPM  R0,Z+
0004c4 920d      	ST   X+,R0
0004c5 9701      	SBIW R24,1
0004c6 f7e1      	BRNE __GLOBAL_INI_LOOP
0004c7 01fb      	MOVW R30,R22
0004c8 cff0      	RJMP __GLOBAL_INI_NEXT
                 __GLOBAL_INI_END:
                 
                 ;GPIOR0 INITIALIZATION
0004c9 e0e0      	LDI  R30,__GPIOR0_INIT
0004ca bbee      	OUT  GPIOR0,R30
                 
                 ;HARDWARE STACK POINTER INITIALIZATION
0004cb efef      	LDI  R30,LOW(__SRAM_END-__HEAP_SIZE)
0004cc bfed      	OUT  SPL,R30
0004cd e0e8      	LDI  R30,HIGH(__SRAM_END-__HEAP_SIZE)
0004ce bfee      	OUT  SPH,R30
                 
                 ;DATA STACK POINTER INITIALIZATION
0004cf e0c0      	LDI  R28,LOW(__SRAM_START+__DSTACK_SIZE)
0004d0 e0d3      	LDI  R29,HIGH(__SRAM_START+__DSTACK_SIZE)
                 
0004d1 940c 0679 	JMP  _main
                 
                 	.ESEG
                 	.ORG 0
                 
                 	.DSEG
                 	.ORG 0x300
                 
                 	.CSEG
                 ;/*******************************************************
                 ;This program was created by the
                 ;CodeWizardAVR V3.12 Advanced
                 ;Automatic Program Generator
                 ; Copyright 1998-2014 Pavel Haiduc, HP InfoTech s.r.l.
                 ;http://www.hpinfotech.com
                 ;
                 ;Project :
                 ;Version :
                 ;Date    : 04.02.2015
                 ;Author  :
                 ;Company :
                 ;Comments:
                 ;
                 ;
                 ;Chip type               : ATmega328P
                 ;Program type            : Application
                 ;AVR Core Clock frequency: 8,000000 MHz
                 ;Memory model            : Small
                 ;External RAM size       : 0
                 ;Data Stack size         : 512
                 ;*******************************************************/
                 ;
                 ;#include <mega328p.h>
                 	#ifndef __SLEEP_DEFINED__
                 	#define __SLEEP_DEFINED__
                 	.EQU __se_bit=0x01
                 	.EQU __sm_mask=0x0E
                 	.EQU __sm_adc_noise_red=0x02
                 	.EQU __sm_powerdown=0x04
                 	.EQU __sm_powersave=0x06
                 	.EQU __sm_standby=0x0C
                 	.EQU __sm_ext_standby=0x0E
                 	.SET power_ctrl_reg=smcr
                 	#endif
                 ;#include <sleep.h>
                 ;#include <delay.h>
                 ;#include "glcdfont.c"
                 ;// Standard ASCII 5x7 font
                 ;flash unsigned char font[] = {
                 ;    0x00, 0x00, 0x00, 0x00, 0x00,
                 ;	0x3E, 0x5B, 0x4F, 0x5B, 0x3E,
                 ;	0x3E, 0x6B, 0x4F, 0x6B, 0x3E,
                 ;	0x1C, 0x3E, 0x7C, 0x3E, 0x1C,
                 ;	0x18, 0x3C, 0x7E, 0x3C, 0x18,
                 ;	0x1C, 0x57, 0x7D, 0x57, 0x1C,
                 ;	0x1C, 0x5E, 0x7F, 0x5E, 0x1C,
                 ;	0x00, 0x18, 0x3C, 0x18, 0x00,
                 ;	0xFF, 0xE7, 0xC3, 0xE7, 0xFF,
                 ;	0x00, 0x18, 0x24, 0x18, 0x00,
                 ;	0xFF, 0xE7, 0xDB, 0xE7, 0xFF,
                 ;	0x30, 0x48, 0x3A, 0x06, 0x0E,
                 ;	0x26, 0x29, 0x79, 0x29, 0x26,
                 ;	0x40, 0x7F, 0x05, 0x05, 0x07,
                 ;	0x40, 0x7F, 0x05, 0x25, 0x3F,
                 ;	0x5A, 0x3C, 0xE7, 0x3C, 0x5A,
                 ;	0x7F, 0x3E, 0x1C, 0x1C, 0x08,
                 ;	0x08, 0x1C, 0x1C, 0x3E, 0x7F,
                 ;	0x14, 0x22, 0x7F, 0x22, 0x14,
                 ;	0x5F, 0x5F, 0x00, 0x5F, 0x5F,
                 ;	0x06, 0x09, 0x7F, 0x01, 0x7F,
                 ;	0x00, 0x66, 0x89, 0x95, 0x6A,
                 ;	0x60, 0x60, 0x60, 0x60, 0x60,
                 ;	0x94, 0xA2, 0xFF, 0xA2, 0x94,
                 ;	0x08, 0x04, 0x7E, 0x04, 0x08,
                 ;	0x10, 0x20, 0x7E, 0x20, 0x10,
                 ;	0x08, 0x08, 0x2A, 0x1C, 0x08,
                 ;	0x08, 0x1C, 0x2A, 0x08, 0x08,
                 ;	0x1E, 0x10, 0x10, 0x10, 0x10,
                 ;	0x0C, 0x1E, 0x0C, 0x1E, 0x0C,
                 ;	0x30, 0x38, 0x3E, 0x38, 0x30,
                 ;	0x06, 0x0E, 0x3E, 0x0E, 0x06,
                 ;	0x00, 0x00, 0x00, 0x00, 0x00,
                 ;	0x00, 0x00, 0x5F, 0x00, 0x00,
                 ;	0x00, 0x07, 0x00, 0x07, 0x00,
                 ;	0x14, 0x7F, 0x14, 0x7F, 0x14,
                 ;	0x24, 0x2A, 0x7F, 0x2A, 0x12,
                 ;	0x23, 0x13, 0x08, 0x64, 0x62,
                 ;	0x36, 0x49, 0x56, 0x20, 0x50,
                 ;	0x00, 0x08, 0x07, 0x03, 0x00,
                 ;	0x00, 0x1C, 0x22, 0x41, 0x00,
                 ;	0x00, 0x41, 0x22, 0x1C, 0x00,
                 ;	0x2A, 0x1C, 0x7F, 0x1C, 0x2A,
                 ;	0x08, 0x08, 0x3E, 0x08, 0x08,
                 ;	0x00, 0x80, 0x70, 0x30, 0x00,
                 ;	0x08, 0x08, 0x08, 0x08, 0x08,
                 ;	0x00, 0x00, 0x60, 0x60, 0x00,
                 ;	0x20, 0x10, 0x08, 0x04, 0x02,
                 ;	0x3E, 0x51, 0x49, 0x45, 0x3E,
                 ;	0x00, 0x42, 0x7F, 0x40, 0x00,
                 ;	0x72, 0x49, 0x49, 0x49, 0x46,
                 ;	0x21, 0x41, 0x49, 0x4D, 0x33,
                 ;	0x18, 0x14, 0x12, 0x7F, 0x10,
                 ;	0x27, 0x45, 0x45, 0x45, 0x39,
                 ;	0x3C, 0x4A, 0x49, 0x49, 0x31,
                 ;	0x41, 0x21, 0x11, 0x09, 0x07,
                 ;	0x36, 0x49, 0x49, 0x49, 0x36,
                 ;	0x46, 0x49, 0x49, 0x29, 0x1E,
                 ;	0x00, 0x00, 0x14, 0x00, 0x00,
                 ;	0x00, 0x40, 0x34, 0x00, 0x00,
                 ;	0x00, 0x08, 0x14, 0x22, 0x41,
                 ;	0x14, 0x14, 0x14, 0x14, 0x14,
                 ;	0x00, 0x41, 0x22, 0x14, 0x08,
                 ;	0x02, 0x01, 0x59, 0x09, 0x06,
                 ;	0x3E, 0x41, 0x5D, 0x59, 0x4E,
                 ;	0x7C, 0x12, 0x11, 0x12, 0x7C,
                 ;	0x7F, 0x49, 0x49, 0x49, 0x36,
                 ;	0x3E, 0x41, 0x41, 0x41, 0x22,
                 ;	0x7F, 0x41, 0x41, 0x41, 0x3E,
                 ;	0x7F, 0x49, 0x49, 0x49, 0x41,
                 ;	0x7F, 0x09, 0x09, 0x09, 0x01,
                 ;	0x3E, 0x41, 0x41, 0x51, 0x73,
                 ;	0x7F, 0x08, 0x08, 0x08, 0x7F,
                 ;	0x00, 0x41, 0x7F, 0x41, 0x00,
                 ;	0x20, 0x40, 0x41, 0x3F, 0x01,
                 ;	0x7F, 0x08, 0x14, 0x22, 0x41,
                 ;	0x7F, 0x40, 0x40, 0x40, 0x40,
                 ;	0x7F, 0x02, 0x1C, 0x02, 0x7F,
                 ;	0x7F, 0x04, 0x08, 0x10, 0x7F,
                 ;	0x3E, 0x41, 0x41, 0x41, 0x3E,
                 ;	0x7F, 0x09, 0x09, 0x09, 0x06,
                 ;	0x3E, 0x41, 0x51, 0x21, 0x5E,
                 ;	0x7F, 0x09, 0x19, 0x29, 0x46,
                 ;	0x26, 0x49, 0x49, 0x49, 0x32,
                 ;	0x03, 0x01, 0x7F, 0x01, 0x03,
                 ;	0x3F, 0x40, 0x40, 0x40, 0x3F,
                 ;	0x1F, 0x20, 0x40, 0x20, 0x1F,
                 ;	0x3F, 0x40, 0x38, 0x40, 0x3F,
                 ;	0x63, 0x14, 0x08, 0x14, 0x63,
                 ;	0x03, 0x04, 0x78, 0x04, 0x03,
                 ;	0x61, 0x59, 0x49, 0x4D, 0x43,
                 ;	0x00, 0x7F, 0x41, 0x41, 0x41,
                 ;	0x02, 0x04, 0x08, 0x10, 0x20,
                 ;	0x00, 0x41, 0x41, 0x41, 0x7F,
                 ;	0x04, 0x02, 0x01, 0x02, 0x04,
                 ;	0x40, 0x40, 0x40, 0x40, 0x40,
                 ;	0x00, 0x03, 0x07, 0x08, 0x00,
                 ;	0x20, 0x54, 0x54, 0x78, 0x40,
                 ;	0x7F, 0x28, 0x44, 0x44, 0x38,
                 ;	0x38, 0x44, 0x44, 0x44, 0x28,
                 ;	0x38, 0x44, 0x44, 0x28, 0x7F,
                 ;	0x38, 0x54, 0x54, 0x54, 0x18,
                 ;	0x00, 0x08, 0x7E, 0x09, 0x02,
                 ;	0x18, 0xA4, 0xA4, 0x9C, 0x78,
                 ;	0x7F, 0x08, 0x04, 0x04, 0x78,
                 ;	0x00, 0x44, 0x7D, 0x40, 0x00,
                 ;	0x20, 0x40, 0x40, 0x3D, 0x00,
                 ;	0x7F, 0x10, 0x28, 0x44, 0x00,
                 ;	0x00, 0x41, 0x7F, 0x40, 0x00,
                 ;	0x7C, 0x04, 0x78, 0x04, 0x78,
                 ;	0x7C, 0x08, 0x04, 0x04, 0x78,
                 ;	0x38, 0x44, 0x44, 0x44, 0x38,
                 ;	0xFC, 0x18, 0x24, 0x24, 0x18,
                 ;	0x18, 0x24, 0x24, 0x18, 0xFC,
                 ;	0x7C, 0x08, 0x04, 0x04, 0x08,
                 ;	0x48, 0x54, 0x54, 0x54, 0x24,
                 ;	0x04, 0x04, 0x3F, 0x44, 0x24,
                 ;	0x3C, 0x40, 0x40, 0x20, 0x7C,
                 ;	0x1C, 0x20, 0x40, 0x20, 0x1C,
                 ;	0x3C, 0x40, 0x30, 0x40, 0x3C,
                 ;	0x44, 0x28, 0x10, 0x28, 0x44,
                 ;	0x4C, 0x90, 0x90, 0x90, 0x7C,
                 ;	0x44, 0x64, 0x54, 0x4C, 0x44,
                 ;	0x00, 0x08, 0x36, 0x41, 0x00,
                 ;	0x00, 0x00, 0x77, 0x00, 0x00,
                 ;	0x00, 0x41, 0x36, 0x08, 0x00,
                 ;	0x02, 0x01, 0x02, 0x04, 0x02,
                 ;	0x3C, 0x26, 0x23, 0x26, 0x3C,
                 ;    0x00, 0x00, 0x00, 0x00, 0x00,
                 ;	0x7F, 0x01, 0x01, 0x01, 0x03 ,  // 
                 ;	0x00, 0x00, 0x00, 0x00, 0x00,
                 ;	0x00, 0x00, 0x00, 0x00, 0x00,
                 ;	0x00, 0x00, 0x00, 0x00, 0x00,
                 ;	0x00, 0x00, 0x00, 0x00, 0x00,
                 ;	0x00, 0x00, 0x00, 0x00, 0x00,
                 ;	0x00, 0x00, 0x00, 0x00, 0x00,
                 ;	0x00, 0x00, 0x00, 0x00, 0x00,
                 ;	0x00, 0x00, 0x00, 0x00, 0x00,
                 ;	0x00, 0x00, 0x00, 0x00, 0x00,
                 ;	0x00, 0x00, 0x00, 0x00, 0x00,
                 ;	0x00, 0x00, 0x00, 0x00, 0x00,
                 ;	0x00, 0x00, 0x00, 0x00, 0x00,
                 ;	0x00, 0x00, 0x00, 0x00, 0x00,
                 ;	0x00, 0x00, 0x00, 0x00, 0x00,
                 ;	0x00, 0x00, 0x00, 0x00, 0x00,
                 ;	0x00, 0x00, 0x00, 0x00, 0x00,
                 ;	0x00, 0x00, 0x00, 0x00, 0x00,
                 ;	0x00, 0x00, 0x00, 0x00, 0x00,
                 ;	0x00, 0x00, 0x00, 0x00, 0x00,
                 ;	0x00, 0x00, 0x00, 0x00, 0x00,
                 ;	0x00, 0x00, 0x00, 0x00, 0x00,
                 ;	0x00, 0x00, 0x00, 0x00, 0x00,
                 ;	0x00, 0x00, 0x00, 0x00, 0x00,
                 ;	0x00, 0x00, 0x00, 0x00, 0x00,
                 ;	0x00, 0x00, 0x00, 0x00, 0x00,
                 ;	0x00, 0x00, 0x00, 0x00, 0x00,
                 ;	0x00, 0x00, 0x00, 0x00, 0x00,
                 ;	0x00, 0x00, 0x00, 0x00, 0x00,
                 ;	0x00, 0x00, 0x00, 0x00, 0x00,
                 ;	0x00, 0x00, 0x00, 0x00, 0x00,
                 ;	0x00, 0x00, 0x00, 0x00, 0x00,
                 ;	0x00, 0x00, 0x00, 0x00, 0x00,
                 ;	0x00, 0x00, 0x00, 0x00, 0x00,
                 ;	0x00, 0x00, 0x00, 0x00, 0x00,
                 ;	0x00, 0x00, 0x00, 0x00, 0x00,
                 ;	   0x7F, 0x01, 0x01, 0x01, 0x03 ,  // 
                 ;	0x00, 0x00, 0x00, 0x00, 0x00,
                 ;	0x00, 0x00, 0x00, 0x00, 0x00,
                 ;	    0x7F, 0x49, 0x49, 0x49, 0x49 ,  // 
                 ;	0x00, 0x00, 0x00, 0x00, 0x00,
                 ;	     0x3E, 0x49, 0x49, 0x41, 0x22 , // 
                 ;	0x00, 0x00, 0x00, 0x00, 0x00,
                 ;	0x00, 0x00, 0x00, 0x00, 0x00,
                 ;	0x00, 0x00, 0x00, 0x00, 0x00,
                 ;	0x00, 0x00, 0x00, 0x00, 0x00,
                 ;	     0x00, 0x43, 0x7E, 0x43, 0x00,   // 
                 ;	0x00, 0x00, 0x00, 0x00, 0x00,
                 ;	0x00, 0x00, 0x00, 0x00, 0x00,
                 ;	     0x00, 0x41, 0x7F, 0x41, 0x00 , // 
                 ;	     0x00, 0x44, 0x7d, 0x40, 0x00 , // 
                 ;	     0x7C, 0x04, 0x04, 0x04, 0x0C ,  // 
                 ;	0x00, 0x00, 0x00, 0x00, 0x00,
                 ;	0x00, 0x00, 0x00, 0x00, 0x00,
                 ;	0x00, 0x00, 0x00, 0x00, 0x00,
                 ;	     0x38, 0x54, 0x54, 0x54, 0x08 ,  // 
                 ;	0x00, 0x00, 0x00, 0x00, 0x00,
                 ;	     0x38, 0x54, 0x54, 0x44, 0x28 , // 
                 ;	0x00, 0x00, 0x00, 0x00, 0x00,
                 ;	0x00, 0x00, 0x00, 0x00, 0x00,
                 ;	0x00, 0x00, 0x00, 0x00, 0x00,
                 ;	0x00, 0x00, 0x00, 0x00, 0x00,
                 ;     0x00, 0x45, 0x7C, 0x41, 0x00 , // 
                 ;	 0x7E, 0x11, 0x11, 0x11, 0x7E ,  // 
                 ;     0x7F, 0x49, 0x49, 0x49, 0x33 ,  // 
                 ;     0x7F, 0x49, 0x49, 0x49, 0x36 ,  // 
                 ;     0x7F, 0x01, 0x01, 0x01, 0x03 ,  // 
                 ;     0xE0, 0x51, 0x4F, 0x41, 0xFF ,  // 
                 ;     0x7F, 0x49, 0x49, 0x49, 0x49 ,  // 
                 ;     0x77, 0x08, 0x7F, 0x08, 0x77 ,  // 
                 ;     0x49, 0x49, 0x49, 0x49, 0x36 ,  // 
                 ;     0x7F, 0x10, 0x08, 0x04, 0x7F ,  // 
                 ;     0x7C, 0x21, 0x12, 0x09, 0x7C ,  // 
                 ;     0x7F, 0x08, 0x14, 0x22, 0x41 ,  // 
                 ;     0x20, 0x41, 0x3F, 0x01, 0x7F ,  // 
                 ;     0x7F, 0x02, 0x0C, 0x02, 0x7F ,  // 
                 ;     0x7F, 0x08, 0x08, 0x08, 0x7F ,  // 
                 ;     0x3E, 0x41, 0x41, 0x41, 0x3E ,  // 
                 ;     0x7F, 0x01, 0x01, 0x01, 0x7F ,  // 
                 ;     0x7F, 0x09, 0x09, 0x09, 0x06 ,  // 
                 ;     0x3E, 0x41, 0x41, 0x41, 0x22 ,  // 
                 ;     0x01, 0x01, 0x7F, 0x01, 0x01 ,  // 
                 ;     0x27, 0x48, 0x48, 0x48, 0x3F ,  // 
                 ;     0x1C, 0x22, 0x7F, 0x22, 0x1C ,  // 
                 ;     0x63, 0x14, 0x08, 0x14, 0x63 ,  // 
                 ;     0x7F, 0x40, 0x40, 0x40, 0xFF ,  // 
                 ;     0x07, 0x08, 0x08, 0x08, 0x7F ,  // 
                 ;     0x7F, 0x40, 0x7F, 0x40, 0x7F ,  // 
                 ;     0x7F, 0x40, 0x7F, 0x40, 0xFF ,  // 
                 ;     0x01, 0x7F, 0x48, 0x48, 0x30 ,  // 
                 ;     0x7F, 0x48, 0x30, 0x00, 0x7F ,  // 
                 ;     0x7F, 0x48, 0x48, 0x30, 0x00 ,  // 
                 ;     0x22, 0x41, 0x49, 0x49, 0x3E ,  // 
                 ;     0x7F, 0x08, 0x3E, 0x41, 0x3E ,  // 
                 ;     0x46, 0x29, 0x19, 0x09, 0x7F ,  // 
                 ;     0x20, 0x54, 0x54, 0x54, 0x78 ,  // 
                 ;     0x3C, 0x4A, 0x4A, 0x49, 0x31 ,  // 
                 ;     0x7C, 0x54, 0x54, 0x28, 0x00 ,  // 
                 ;     0x7C, 0x04, 0x04, 0x04, 0x0C ,  // 
                 ;     0xE0, 0x54, 0x4C, 0x44, 0xFC ,  // 
                 ;     0x38, 0x54, 0x54, 0x54, 0x08 ,  // 
                 ;     0x6C, 0x10, 0x7C, 0x10, 0x6C ,  // 
                 ;     0x44, 0x44, 0x54, 0x54, 0x28 ,  // 
                 ;     0x7C, 0x20, 0x10, 0x08, 0x7C ,  // 
                 ;     0x78, 0x42, 0x24, 0x12, 0x78 ,  // 
                 ;     0x7C, 0x10, 0x28, 0x44, 0x00 ,  // 
                 ;     0x20, 0x44, 0x3C, 0x04, 0x7C ,  // 
                 ;     0x7C, 0x08, 0x10, 0x08, 0x7C ,  // 
                 ;     0x7C, 0x10, 0x10, 0x10, 0x7C ,  // 
                 ;     0x38, 0x44, 0x44, 0x44, 0x38 ,  // 
                 ;     0x7C, 0x04, 0x04, 0x04, 0x7C ,  // 
                 ;     0x7C, 0x14, 0x14, 0x14, 0x08 ,  // 
                 ;     0x38, 0x44, 0x44, 0x44, 0x44 ,  // 
                 ;     0x04, 0x04, 0x7C, 0x04, 0x04 ,  // 
                 ;     0x0C, 0x50, 0x50, 0x50, 0x3C ,  // 
                 ;     0x18, 0x24, 0x7E, 0x24, 0x18 ,  // 
                 ;     0x44, 0x28, 0x10, 0x28, 0x44 ,  // 
                 ;     0x7C, 0x40, 0x40, 0x40, 0xFC ,  // 
                 ;     0x0C, 0x10, 0x10, 0x10, 0x7C ,  // 
                 ;     0x7C, 0x40, 0x7C, 0x40, 0x7C ,  // 
                 ;     0x7C, 0x40, 0x7C, 0x40, 0xFC ,  // 
                 ;     0x04, 0x7C, 0x50, 0x50, 0x20 ,  // 
                 ;     0x7C, 0x50, 0x20, 0x00, 0x7C ,  // 
                 ;     0x7C, 0x50, 0x50, 0x20, 0x00 ,  // 
                 ;     0x28, 0x44, 0x54, 0x54, 0x38 ,  // 
                 ;     0x7C, 0x10, 0x38, 0x44, 0x38 ,  // 
                 ;     0x08, 0x54, 0x34, 0x14, 0x7C   // 
                 ;};
                 ;
                 ;
                 ;
                 ;
                 ;unsigned char buffer[1024] =  {
                 ;0x00, 0x00, 0x00, 0x00, 0x00, 0x00, 0x00, 0x00, 0x00, 0x00, 0x00, 0x00, 0x00, 0x00, 0x00, 0x00,
                 ;0x00, 0x00, 0x00, 0x00, 0x00, 0x00, 0x00, 0x00, 0x00, 0x00, 0x00, 0x00, 0x00, 0x00, 0x00, 0x00,
                 ;0x00, 0x00, 0x00, 0x00, 0x00, 0x00, 0x00, 0x00, 0x00, 0x00, 0x00, 0x00, 0x00, 0x00, 0x00, 0x00,
                 ;0x00, 0x00, 0x00, 0x00, 0x00, 0x00, 0x00, 0x00, 0x00, 0x00, 0x00, 0x00, 0x00, 0x00, 0x00, 0x80,
                 ;0x80, 0x80, 0x00, 0x00, 0x00, 0x00, 0x00, 0x00, 0x00, 0x00, 0x00, 0x00, 0x00, 0x00, 0x00, 0x00,
                 ;0x00, 0x80, 0x80, 0xC0, 0xC0, 0x00, 0x00, 0x00, 0x00, 0x00, 0x00, 0x00, 0x00, 0x00, 0x00, 0x00,
                 ;0x00, 0x00, 0x00, 0x00, 0x00, 0x00, 0x00, 0x00, 0x00, 0x00, 0x00, 0x00, 0x00, 0x00, 0x00, 0x00,
                 ;0x00, 0x00, 0x00, 0x00, 0x00, 0x00, 0x00, 0x00, 0x00, 0x00, 0x00, 0x00, 0x00, 0x00, 0x00, 0x00,
                 ;0x00, 0x00, 0x00, 0x00, 0x00, 0x00, 0x00, 0x00, 0x00, 0x00, 0x00, 0x00, 0x00, 0x00, 0x00, 0x00,
                 ;0x00, 0x00, 0x00, 0x00, 0x80, 0xC0, 0xE0, 0xF0, 0xF8, 0xFC, 0xF8, 0xE0, 0x00, 0x00, 0x00, 0x00,
                 ;0x00, 0x00, 0x00, 0x00, 0x00, 0x00, 0x00, 0x00, 0x00, 0x00, 0x00, 0x00, 0x00, 0x80, 0x80, 0x80,
                 ;0x80, 0x80, 0x00, 0x80, 0x80, 0x00, 0x00, 0x00, 0x00, 0x80, 0x80, 0x80, 0x80, 0x80, 0x00, 0xFF,
                 ;0xFF, 0xFF, 0x00, 0x00, 0x00, 0x00, 0x80, 0x80, 0x80, 0x80, 0x00, 0x00, 0x80, 0x80, 0x00, 0x00,
                 ;0x80, 0xFF, 0xFF, 0x80, 0x80, 0x00, 0x80, 0x80, 0x00, 0x80, 0x80, 0x80, 0x80, 0x00, 0x80, 0x80,
                 ;0x00, 0x00, 0x00, 0x00, 0x00, 0x80, 0x80, 0x00, 0x00, 0x8C, 0x8E, 0x84, 0x00, 0x00, 0x80, 0xF8,
                 ;0xF8, 0xF8, 0x80, 0x00, 0x00, 0x00, 0x00, 0x00, 0x00, 0x00, 0x00, 0x00, 0x00, 0x00, 0x00, 0x00,
                 ;0xF0, 0xF0, 0xF0, 0xF0, 0xF0, 0xF0, 0xF0, 0xF0, 0xF0, 0xF0, 0xF0, 0xF0, 0xE0, 0xE0, 0xC0, 0x80,
                 ;0x00, 0xE0, 0xFC, 0xFE, 0xFF, 0xFF, 0xFF, 0x7F, 0xFF, 0xFF, 0xFF, 0xFF, 0xFF, 0x00, 0x00, 0x00,
                 ;0x00, 0x00, 0x00, 0x00, 0x00, 0x00, 0x00, 0x00, 0x00, 0x00, 0x00, 0xFE, 0xFF, 0xC7, 0x01, 0x01,
                 ;0x01, 0x01, 0x83, 0xFF, 0xFF, 0x00, 0x00, 0x7C, 0xFE, 0xC7, 0x01, 0x01, 0x01, 0x01, 0x83, 0xFF,
                 ;0xFF, 0xFF, 0x00, 0x38, 0xFE, 0xC7, 0x83, 0x01, 0x01, 0x01, 0x83, 0xC7, 0xFF, 0xFF, 0x00, 0x00,
                 ;0x01, 0xFF, 0xFF, 0x01, 0x01, 0x00, 0xFF, 0xFF, 0x07, 0x01, 0x01, 0x01, 0x00, 0x00, 0x7F, 0xFF,
                 ;0x80, 0x00, 0x00, 0x00, 0xFF, 0xFF, 0x7F, 0x00, 0x00, 0xFF, 0xFF, 0xFF, 0x00, 0x00, 0x01, 0xFF,
                 ;0xFF, 0xFF, 0x01, 0x00, 0x00, 0x00, 0x00, 0x00, 0x00, 0x00, 0x00, 0x00, 0x00, 0x00, 0x00, 0x00,
                 ;0x03, 0x0F, 0x3F, 0x7F, 0x7F, 0xFF, 0xFF, 0xFF, 0xFF, 0xFF, 0xFF, 0xFF, 0xE7, 0xC7, 0xC7, 0x8F,
                 ;0x8F, 0x9F, 0xBF, 0xFF, 0xFF, 0xC3, 0xC0, 0xF0, 0xFF, 0xFF, 0xFF, 0xFF, 0xFF, 0xFC, 0xFC, 0xFC,
                 ;0xFC, 0xFC, 0xFC, 0xFC, 0xFC, 0xF8, 0xF8, 0xF0, 0xF0, 0xE0, 0xC0, 0x00, 0x01, 0x03, 0x03, 0x03,
                 ;0x03, 0x03, 0x01, 0x03, 0x03, 0x00, 0x00, 0x00, 0x00, 0x01, 0x03, 0x03, 0x03, 0x03, 0x01, 0x01,
                 ;0x03, 0x01, 0x00, 0x00, 0x00, 0x01, 0x03, 0x03, 0x03, 0x03, 0x01, 0x01, 0x03, 0x03, 0x00, 0x00,
                 ;0x00, 0x03, 0x03, 0x00, 0x00, 0x00, 0x03, 0x03, 0x00, 0x00, 0x00, 0x00, 0x00, 0x00, 0x00, 0x01,
                 ;0x03, 0x03, 0x03, 0x03, 0x03, 0x01, 0x00, 0x00, 0x00, 0x01, 0x03, 0x01, 0x00, 0x00, 0x00, 0x03,
                 ;0x03, 0x01, 0x00, 0x00, 0x00, 0x00, 0x00, 0x00, 0x00, 0x00, 0x00, 0x00, 0x00, 0x00, 0x00, 0x00,
                 ;0x00, 0x00, 0x00, 0x80, 0xC0, 0xE0, 0xF0, 0xF9, 0xFF, 0xFF, 0xFF, 0xFF, 0xFF, 0x3F, 0x1F, 0x0F,
                 ;0x87, 0xC7, 0xF7, 0xFF, 0xFF, 0x1F, 0x1F, 0x3D, 0xFC, 0xF8, 0xF8, 0xF8, 0xF8, 0x7C, 0x7D, 0xFF,
                 ;0xFF, 0xFF, 0xFF, 0xFF, 0xFF, 0xFF, 0xFF, 0x7F, 0x3F, 0x0F, 0x07, 0x00, 0x30, 0x30, 0x00, 0x00,
                 ;0x00, 0x00, 0x00, 0x00, 0x00, 0x00, 0x00, 0x00, 0x00, 0x00, 0x00, 0x00, 0x00, 0x00, 0x00, 0x00,
                 ;0x00, 0x00, 0x00, 0x00, 0xFE, 0xFE, 0xFC, 0x00, 0x00, 0x00, 0x00, 0x00, 0x00, 0x00, 0x00, 0x00,
                 ;0x00, 0x00, 0x00, 0x00, 0x00, 0x00, 0x00, 0x00, 0x00, 0x00, 0x00, 0x00, 0x00, 0xE0, 0xC0, 0x00,
                 ;0x00, 0x00, 0x00, 0x00, 0x00, 0x00, 0x00, 0x00, 0x00, 0x00, 0x30, 0x30, 0x00, 0x00, 0x00, 0x00,
                 ;0x00, 0x00, 0x00, 0x00, 0x00, 0x00, 0x00, 0x00, 0x00, 0x00, 0x00, 0x00, 0x00, 0x00, 0x00, 0x00,
                 ;0x00, 0xC0, 0xFE, 0xFF, 0xFF, 0xFF, 0xFF, 0xFF, 0xFF, 0xFF, 0xFF, 0xFF, 0x7F, 0x7F, 0x3F, 0x1F,
                 ;0x0F, 0x07, 0x1F, 0x7F, 0xFF, 0xFF, 0xF8, 0xF8, 0xFF, 0xFF, 0xFF, 0xFF, 0xFF, 0xFE, 0xF8, 0xE0,
                 ;0x00, 0x00, 0x00, 0x01, 0x00, 0x00, 0x00, 0x00, 0x00, 0x00, 0x00, 0x00, 0xFE, 0xFE, 0x00, 0x00,
                 ;0x00, 0xFC, 0xFE, 0xFC, 0x0C, 0x06, 0x06, 0x0E, 0xFC, 0xF8, 0x00, 0x00, 0xF0, 0xF8, 0x1C, 0x0E,
                 ;0x06, 0x06, 0x06, 0x0C, 0xFF, 0xFF, 0xFF, 0x00, 0x00, 0xFE, 0xFE, 0x00, 0x00, 0x00, 0x00, 0xFC,
                 ;0xFE, 0xFC, 0x00, 0x18, 0x3C, 0x7E, 0x66, 0xE6, 0xCE, 0x84, 0x00, 0x00, 0x06, 0xFF, 0xFF, 0x06,
                 ;0x06, 0xFC, 0xFE, 0xFC, 0x0C, 0x06, 0x06, 0x06, 0x00, 0x00, 0xFE, 0xFE, 0x00, 0x00, 0xC0, 0xF8,
                 ;0xFC, 0x4E, 0x46, 0x46, 0x46, 0x4E, 0x7C, 0x78, 0x40, 0x18, 0x3C, 0x76, 0xE6, 0xCE, 0xCC, 0x80,
                 ;0x00, 0x00, 0x00, 0x00, 0x00, 0x00, 0x00, 0x00, 0x00, 0x00, 0x00, 0x00, 0x00, 0x00, 0x00, 0x00,
                 ;0x00, 0x00, 0x00, 0x00, 0x01, 0x07, 0x0F, 0x1F, 0x1F, 0x3F, 0x3F, 0x3F, 0x3F, 0x1F, 0x0F, 0x03,
                 ;0x00, 0x00, 0x00, 0x00, 0x00, 0x00, 0x00, 0x00, 0x00, 0x00, 0x00, 0x00, 0x0F, 0x0F, 0x00, 0x00,
                 ;0x00, 0x0F, 0x0F, 0x0F, 0x00, 0x00, 0x00, 0x00, 0x0F, 0x0F, 0x00, 0x00, 0x03, 0x07, 0x0E, 0x0C,
                 ;0x18, 0x18, 0x0C, 0x06, 0x0F, 0x0F, 0x0F, 0x00, 0x00, 0x01, 0x0F, 0x0E, 0x0C, 0x18, 0x0C, 0x0F,
                 ;0x07, 0x01, 0x00, 0x04, 0x0E, 0x0C, 0x18, 0x0C, 0x0F, 0x07, 0x00, 0x00, 0x00, 0x0F, 0x0F, 0x00,
                 ;0x00, 0x0F, 0x0F, 0x0F, 0x00, 0x00, 0x00, 0x00, 0x00, 0x00, 0x0F, 0x0F, 0x00, 0x00, 0x00, 0x07,
                 ;0x07, 0x0C, 0x0C, 0x18, 0x1C, 0x0C, 0x06, 0x06, 0x00, 0x04, 0x0E, 0x0C, 0x18, 0x0C, 0x0F, 0x07,
                 ;0x00, 0x00, 0x00, 0x00, 0x00, 0x00, 0x00, 0x00, 0x00, 0x00, 0x00, 0x00, 0x00, 0x00, 0x00, 0x00,
                 ;0x00, 0x00, 0x00, 0x00, 0x00, 0x00, 0x00, 0x00, 0x00, 0x00, 0x00, 0x00, 0x00, 0x00, 0x00, 0x00,
                 ;0x00, 0x00, 0x00, 0x00, 0x00, 0x00, 0x00, 0x00, 0x00, 0x00, 0x00, 0x00, 0x00, 0x00, 0x00, 0x00,
                 ;0x00, 0x00, 0x00, 0x00, 0x00, 0x00, 0x00, 0x00, 0x00, 0x00, 0x00, 0x00, 0x00, 0x00, 0x00, 0x00,
                 ;0x00, 0x00, 0x00, 0x00, 0x00, 0x00, 0x00, 0x00, 0x00, 0x00, 0x00, 0x00, 0x00, 0x00, 0x00, 0x00,
                 ;0x00, 0x00, 0x00, 0x00, 0x00, 0x00, 0x00, 0x00, 0x00, 0x00, 0x00, 0x00, 0x00, 0x00, 0x00, 0x00,
                 ;0x00, 0x00, 0x00, 0x00, 0x00, 0x00, 0x00, 0x00, 0x00, 0x00, 0x00, 0x00, 0x00, 0x00, 0x00, 0x00,
                 ;0x00, 0x00, 0x00, 0x00, 0x00, 0x00, 0x00, 0x00, 0x00, 0x00, 0x00, 0x00, 0x00, 0x00, 0x00, 0x00
                 ;};
                 
                 	.DSEG
                 ;
                 ;
                 ;
                 ;
                 ;
                 ;void clearDisplay(void)
                 ; 0000 001B {
                 
                 	.CSEG
                 _clearDisplay:
                 ; .FSTART _clearDisplay
                 ;int i0;
                 ;    for(i0=0; i0<1024;i0++) buffer[i0] = 0;
0004d3 940e 0b48 	CALL SUBOPT_0x0
                 ;	i0 -> R16,R17
                 _0x5:
                +
0004d5 3000     +CPI R16 , LOW ( 1024 )
0004d6 e0e4     +LDI R30 , HIGH ( 1024 )
0004d7 071e     +CPC R17 , R30
                 	__CPWRN 16,17,1024
0004d8 f44c      	BRGE _0x6
0004d9 e0a6      	LDI  R26,LOW(_buffer)
0004da e0b3      	LDI  R27,HIGH(_buffer)
0004db 0fa0      	ADD  R26,R16
0004dc 1fb1      	ADC  R27,R17
0004dd e0e0      	LDI  R30,LOW(0)
0004de 93ec      	ST   X,R30
                +
0004df 5f0f     +SUBI R16 , LOW ( - 1 )
0004e0 4f1f     +SBCI R17 , HIGH ( - 1 )
                 	__ADDWRN 16,17,1
0004e1 cff3      	RJMP _0x5
                 _0x6:
0004e2 9109      	LD   R16,Y+
0004e3 9119      	LD   R17,Y+
0004e4 9508      	RET
                 ; .FEND
                 ;
                 ;
                 ;
                 ;
                 ;void drawPixel(int x0, int y0, int color) {
                 _drawPixel:
                 ; .FSTART _drawPixel
                 ;  if ((x0 < 0) || (x0 >= 128) || (y0 < 0) || (y0 >= 64))
0004e5 93ba      	ST   -Y,R27
0004e6 93aa      	ST   -Y,R26
                 ;	x0 -> Y+4
                 ;	y0 -> Y+2
                 ;	color -> Y+0
0004e7 81ad      	LDD  R26,Y+5
0004e8 23aa      	TST  R26
0004e9 f07a      	BRMI _0x8
0004ea 81ac      	LDD  R26,Y+4
0004eb 81bd      	LDD  R27,Y+4+1
0004ec 38a0      	CPI  R26,LOW(0x80)
0004ed e0e0      	LDI  R30,HIGH(0x80)
0004ee 07be      	CPC  R27,R30
0004ef f44c      	BRGE _0x8
0004f0 81ab      	LDD  R26,Y+3
0004f1 23aa      	TST  R26
0004f2 f032      	BRMI _0x8
0004f3 81aa      	LDD  R26,Y+2
0004f4 81bb      	LDD  R27,Y+2+1
0004f5 34a0      	CPI  R26,LOW(0x40)
0004f6 e0e0      	LDI  R30,HIGH(0x40)
0004f7 07be      	CPC  R27,R30
0004f8 f00c      	BRLT _0x7
                 _0x8:
                 ;    return;
0004f9 c02c      	RJMP _0x2060003
                 ;
                 ;    x0 = 128 - x0 - 1;
                 _0x7:
0004fa 81ac      	LDD  R26,Y+4
0004fb 81bd      	LDD  R27,Y+4+1
0004fc e8e0      	LDI  R30,LOW(128)
0004fd e0f0      	LDI  R31,HIGH(128)
0004fe 1bea      	SUB  R30,R26
0004ff 0bfb      	SBC  R31,R27
000500 9731      	SBIW R30,1
000501 83ec      	STD  Y+4,R30
000502 83fd      	STD  Y+4+1,R31
                 ;    y0 = 64 - y0 - 1;
000503 81aa      	LDD  R26,Y+2
000504 81bb      	LDD  R27,Y+2+1
000505 e4e0      	LDI  R30,LOW(64)
000506 e0f0      	LDI  R31,HIGH(64)
000507 1bea      	SUB  R30,R26
000508 0bfb      	SBC  R31,R27
000509 9731      	SBIW R30,1
00050a 83ea      	STD  Y+2,R30
00050b 83fb      	STD  Y+2+1,R31
                 ;
                 ;  // x is which column
                 ;    switch (color)
00050c 81e8      	LD   R30,Y
00050d 81f9      	LDD  R31,Y+1
                 ;    {
                 ;      case 1:   buffer[x0+ (y0/8)*128] |=  (1 << (y0&7)); break;
00050e 30e1      	CPI  R30,LOW(0x1)
00050f e0a0      	LDI  R26,HIGH(0x1)
000510 07fa      	CPC  R31,R26
000511 f421      	BRNE _0xD
000512 940e 0b4d 	CALL SUBOPT_0x1
000514 29e1      	OR   R30,R1
000515 c00e      	RJMP _0x61
                 ;      case 0:   buffer[x0+ (y0/8)*128] &= ~(1 << (y0&7)); break;
                 _0xD:
000516 9730      	SBIW R30,0
000517 f429      	BRNE _0xE
000518 940e 0b4d 	CALL SUBOPT_0x1
00051a 95e0      	COM  R30
00051b 21e1      	AND  R30,R1
00051c c007      	RJMP _0x61
                 ;      case 2:  buffer[x0+ (y0/8)*128] ^=  (1 << (y0&7)); break;
                 _0xE:
00051d 30e2      	CPI  R30,LOW(0x2)
00051e e0a0      	LDI  R26,HIGH(0x2)
00051f 07fa      	CPC  R31,R26
000520 f429      	BRNE _0xC
000521 940e 0b4d 	CALL SUBOPT_0x1
000523 25e1      	EOR  R30,R1
                 _0x61:
000524 01db      	MOVW R26,R22
000525 93ec      	ST   X,R30
                 ;    }
                 _0xC:
                 ;
                 ;}
                 _0x2060003:
000526 9626      	ADIW R28,6
000527 9508      	RET
                 ; .FEND
                 ;
                 ;void drawChar(int x0, int y0, char c)
                 ;{
                 _drawChar:
                 ; .FSTART _drawChar
                 ;int i0;
                 ;for(i0 = 0 ;i0< 5;i0++) buffer[x0*6+y0*128+i0] = font[c*5+i0];
000528 93aa      	ST   -Y,R26
000529 940e 0b48 	CALL SUBOPT_0x0
                 ;	x0 -> Y+5
                 ;	y0 -> Y+3
                 ;	c -> Y+2
                 ;	i0 -> R16,R17
                 _0x11:
                +
00052b 3005     +CPI R16 , LOW ( 5 )
00052c e0e0     +LDI R30 , HIGH ( 5 )
00052d 071e     +CPC R17 , R30
                 	__CPWRN 16,17,5
00052e f514      	BRGE _0x12
00052f 81ed      	LDD  R30,Y+5
000530 81fe      	LDD  R31,Y+5+1
000531 e0a6      	LDI  R26,LOW(6)
000532 e0b0      	LDI  R27,HIGH(6)
000533 940e 0d5c 	CALL __MULW12
000535 01df      	MOVW R26,R30
000536 81eb      	LDD  R30,Y+3
000537 81fc      	LDD  R31,Y+3+1
000538 940e 0d3c 	CALL __LSLW3
00053a 940e 0d3a 	CALL __LSLW4
00053c 0fea      	ADD  R30,R26
00053d 1ffb      	ADC  R31,R27
00053e 0fe0      	ADD  R30,R16
00053f 1ff1      	ADC  R31,R17
000540 5fea      	SUBI R30,LOW(-_buffer)
000541 4ffc      	SBCI R31,HIGH(-_buffer)
000542 01bf      	MOVW R22,R30
000543 81aa      	LDD  R26,Y+2
000544 e0e5      	LDI  R30,LOW(5)
000545 9fea      	MUL  R30,R26
000546 01f0      	MOVW R30,R0
000547 0fe0      	ADD  R30,R16
000548 1ff1      	ADC  R31,R17
000549 59e8      	SUBI R30,LOW(-_font*2)
00054a 4fff      	SBCI R31,HIGH(-_font*2)
00054b 91e4      	LPM  R30,Z
00054c 01db      	MOVW R26,R22
00054d 93ec      	ST   X,R30
                +
00054e 5f0f     +SUBI R16 , LOW ( - 1 )
00054f 4f1f     +SBCI R17 , HIGH ( - 1 )
                 	__ADDWRN 16,17,1
000550 cfda      	RJMP _0x11
                 _0x12:
000551 8119      	LDD  R17,Y+1
000552 8108      	LDD  R16,Y+0
000553 9627      	ADIW R28,7
000554 9508      	RET
                 ; .FEND
                 ;
                 ;void drawString(int x0, int y0, char * str, int len)
                 ;{
                 _drawString:
                 ; .FSTART _drawString
                 ;int i0;
                 ;    for (i0 = 0; i0<len; i0++) drawChar(x0+i0,y0, str[i0]) ;
000555 93ba      	ST   -Y,R27
000556 93aa      	ST   -Y,R26
000557 940e 0b48 	CALL SUBOPT_0x0
                 ;	x0 -> Y+8
                 ;	y0 -> Y+6
                 ;	*str -> Y+4
                 ;	len -> Y+2
                 ;	i0 -> R16,R17
                 _0x14:
000559 81ea      	LDD  R30,Y+2
00055a 81fb      	LDD  R31,Y+2+1
00055b 170e      	CP   R16,R30
00055c 071f      	CPC  R17,R31
00055d f4ac      	BRGE _0x15
00055e 01f8      	MOVW R30,R16
00055f 85a8      	LDD  R26,Y+8
000560 85b9      	LDD  R27,Y+8+1
000561 0fea      	ADD  R30,R26
000562 1ffb      	ADC  R31,R27
000563 93fa      	ST   -Y,R31
000564 93ea      	ST   -Y,R30
000565 85e8      	LDD  R30,Y+8
000566 85f9      	LDD  R31,Y+8+1
000567 93fa      	ST   -Y,R31
000568 93ea      	ST   -Y,R30
000569 01f8      	MOVW R30,R16
00056a 85a8      	LDD  R26,Y+8
00056b 85b9      	LDD  R27,Y+8+1
00056c 0fae      	ADD  R26,R30
00056d 1fbf      	ADC  R27,R31
00056e 91ac      	LD   R26,X
00056f dfb8      	RCALL _drawChar
                +
000570 5f0f     +SUBI R16 , LOW ( - 1 )
000571 4f1f     +SBCI R17 , HIGH ( - 1 )
                 	__ADDWRN 16,17,1
000572 cfe6      	RJMP _0x14
                 _0x15:
000573 8119      	LDD  R17,Y+1
000574 8108      	LDD  R16,Y+0
000575 962a      	ADIW R28,10
000576 9508      	RET
                 ; .FEND
                 ;
                 ;void drawLine(int x1, int y1, int x2, int y2, int color)
                 ;{
                 _drawLine:
                 ; .FSTART _drawLine
                 ;int kx,ky;
                 ;int znx, zny;
                 ;if (x2 > 127) x2 = 127;
000577 93ba      	ST   -Y,R27
000578 93aa      	ST   -Y,R26
000579 9722      	SBIW R28,2
00057a 940e 0d95 	CALL __SAVELOCR6
                 ;	x1 -> Y+16
                 ;	y1 -> Y+14
                 ;	x2 -> Y+12
                 ;	y2 -> Y+10
                 ;	color -> Y+8
                 ;	kx -> R16,R17
                 ;	ky -> R18,R19
                 ;	znx -> R20,R21
                 ;	zny -> Y+6
00057c 85ac      	LDD  R26,Y+12
00057d 85bd      	LDD  R27,Y+12+1
00057e 38a0      	CPI  R26,LOW(0x80)
00057f e0e0      	LDI  R30,HIGH(0x80)
000580 07be      	CPC  R27,R30
000581 f024      	BRLT _0x16
000582 e7ef      	LDI  R30,LOW(127)
000583 e0f0      	LDI  R31,HIGH(127)
000584 87ec      	STD  Y+12,R30
000585 87fd      	STD  Y+12+1,R31
                 ;if (x2 < 0) x2 = 0;
                 _0x16:
000586 85ad      	LDD  R26,Y+13
000587 23aa      	TST  R26
000588 f41a      	BRPL _0x17
000589 e0e0      	LDI  R30,LOW(0)
00058a 87ec      	STD  Y+12,R30
00058b 87ed      	STD  Y+12+1,R30
                 ;if (x1 > 127) x1 = 127 ;
                 _0x17:
00058c 89a8      	LDD  R26,Y+16
00058d 89b9      	LDD  R27,Y+16+1
00058e 38a0      	CPI  R26,LOW(0x80)
00058f e0e0      	LDI  R30,HIGH(0x80)
000590 07be      	CPC  R27,R30
000591 f024      	BRLT _0x18
000592 e7ef      	LDI  R30,LOW(127)
000593 e0f0      	LDI  R31,HIGH(127)
000594 8be8      	STD  Y+16,R30
000595 8bf9      	STD  Y+16+1,R31
                 ;if (x1 < 0) x1 = 0 ;
                 _0x18:
000596 89a9      	LDD  R26,Y+17
000597 23aa      	TST  R26
000598 f41a      	BRPL _0x19
000599 e0e0      	LDI  R30,LOW(0)
00059a 8be8      	STD  Y+16,R30
00059b 8be9      	STD  Y+16+1,R30
                 ;if (y2 > 63) y2 = 63;
                 _0x19:
00059c 85aa      	LDD  R26,Y+10
00059d 85bb      	LDD  R27,Y+10+1
00059e 34a0      	CPI  R26,LOW(0x40)
00059f e0e0      	LDI  R30,HIGH(0x40)
0005a0 07be      	CPC  R27,R30
0005a1 f024      	BRLT _0x1A
0005a2 e3ef      	LDI  R30,LOW(63)
0005a3 e0f0      	LDI  R31,HIGH(63)
0005a4 87ea      	STD  Y+10,R30
0005a5 87fb      	STD  Y+10+1,R31
                 ;if (y2 < 0) y2 = 0;
                 _0x1A:
0005a6 85ab      	LDD  R26,Y+11
0005a7 23aa      	TST  R26
0005a8 f41a      	BRPL _0x1B
0005a9 e0e0      	LDI  R30,LOW(0)
0005aa 87ea      	STD  Y+10,R30
0005ab 87eb      	STD  Y+10+1,R30
                 ;if (y1 > 63) y1 = 63;
                 _0x1B:
0005ac 85ae      	LDD  R26,Y+14
0005ad 85bf      	LDD  R27,Y+14+1
0005ae 34a0      	CPI  R26,LOW(0x40)
0005af e0e0      	LDI  R30,HIGH(0x40)
0005b0 07be      	CPC  R27,R30
0005b1 f024      	BRLT _0x1C
0005b2 e3ef      	LDI  R30,LOW(63)
0005b3 e0f0      	LDI  R31,HIGH(63)
0005b4 87ee      	STD  Y+14,R30
0005b5 87ff      	STD  Y+14+1,R31
                 ;if (y1 < 0) y1 = 0;
                 _0x1C:
0005b6 85af      	LDD  R26,Y+15
0005b7 23aa      	TST  R26
0005b8 f41a      	BRPL _0x1D
0005b9 e0e0      	LDI  R30,LOW(0)
0005ba 87ee      	STD  Y+14,R30
0005bb 87ef      	STD  Y+14+1,R30
                 ;    if (x1 > x2) znx = -1; else znx = 1;
                 _0x1D:
0005bc 85ec      	LDD  R30,Y+12
0005bd 85fd      	LDD  R31,Y+12+1
0005be 89a8      	LDD  R26,Y+16
0005bf 89b9      	LDD  R27,Y+16+1
0005c0 17ea      	CP   R30,R26
0005c1 07fb      	CPC  R31,R27
0005c2 f41c      	BRGE _0x1E
                +
0005c3 ef4f     +LDI R20 , LOW ( - 1 )
0005c4 ef5f     +LDI R21 , HIGH ( - 1 )
                 	__GETWRN 20,21,-1
0005c5 c002      	RJMP _0x1F
                 _0x1E:
                +
0005c6 e041     +LDI R20 , LOW ( 1 )
0005c7 e050     +LDI R21 , HIGH ( 1 )
                 	__GETWRN 20,21,1
                 ;    if (y1 > y2) zny = -1; else zny = 1;
                 _0x1F:
0005c8 85ea      	LDD  R30,Y+10
0005c9 85fb      	LDD  R31,Y+10+1
0005ca 85ae      	LDD  R26,Y+14
0005cb 85bf      	LDD  R27,Y+14+1
0005cc 17ea      	CP   R30,R26
0005cd 07fb      	CPC  R31,R27
0005ce f41c      	BRGE _0x20
0005cf efef      	LDI  R30,LOW(65535)
0005d0 efff      	LDI  R31,HIGH(65535)
0005d1 c002      	RJMP _0x62
                 _0x20:
0005d2 e0e1      	LDI  R30,LOW(1)
0005d3 e0f0      	LDI  R31,HIGH(1)
                 _0x62:
0005d4 83ee      	STD  Y+6,R30
0005d5 83ff      	STD  Y+6+1,R31
                 ;    kx = ((x2 - x1)*znx);
0005d6 940e 0b65 	CALL SUBOPT_0x2
                 ;    ky = ((y2 - y1)*zny);
                 ;    drawPixel(x1,y1,color);
                 ;    while ((kx + ky) > 0)
                 _0x22:
0005d8 01d9      	MOVW R26,R18
0005d9 0fa0      	ADD  R26,R16
0005da 1fb1      	ADC  R27,R17
0005db 940e 0d91 	CALL __CPW02
0005dd f534      	BRGE _0x24
                 ;    {
                 ;        if (kx > 0) if (ky / kx <= 1) x1 = x1 + znx;
0005de 2400      	CLR  R0
0005df 1600      	CP   R0,R16
0005e0 0601      	CPC  R0,R17
0005e1 f46c      	BRGE _0x25
0005e2 01f8      	MOVW R30,R16
0005e3 01d9      	MOVW R26,R18
0005e4 940e 0d74 	CALL __DIVW21
0005e6 9732      	SBIW R30,2
0005e7 f43c      	BRGE _0x26
0005e8 01fa      	MOVW R30,R20
0005e9 89a8      	LDD  R26,Y+16
0005ea 89b9      	LDD  R27,Y+16+1
0005eb 0fea      	ADD  R30,R26
0005ec 1ffb      	ADC  R31,R27
0005ed 8be8      	STD  Y+16,R30
0005ee 8bf9      	STD  Y+16+1,R31
                 ;        if (ky > 0) if (kx / ky <= 1) y1 = y1 + zny;
                 _0x26:
                 _0x25:
0005ef 2400      	CLR  R0
0005f0 1602      	CP   R0,R18
0005f1 0603      	CPC  R0,R19
0005f2 f474      	BRGE _0x27
0005f3 01f9      	MOVW R30,R18
0005f4 01d8      	MOVW R26,R16
0005f5 940e 0d74 	CALL __DIVW21
0005f7 9732      	SBIW R30,2
0005f8 f444      	BRGE _0x28
0005f9 81ee      	LDD  R30,Y+6
0005fa 81ff      	LDD  R31,Y+6+1
0005fb 85ae      	LDD  R26,Y+14
0005fc 85bf      	LDD  R27,Y+14+1
0005fd 0fea      	ADD  R30,R26
0005fe 1ffb      	ADC  R31,R27
0005ff 87ee      	STD  Y+14,R30
000600 87ff      	STD  Y+14+1,R31
                 ;        kx = ((x2 - x1)*znx);
                 _0x28:
                 _0x27:
000601 940e 0b65 	CALL SUBOPT_0x2
                 ;        ky = ((y2 - y1)*zny);
                 ;        drawPixel(x1,y1,color);
                 ;    }
000603 cfd4      	RJMP _0x22
                 _0x24:
                 ;
                 ;}
000604 940e 0d9c 	CALL __LOADLOCR6
000606 9662      	ADIW R28,18
000607 9508      	RET
                 ; .FEND
                 ;// Declare your global variables here
                 ;int i,a,n,time, met, x, y, x0 = 0, y0 = 32, maxr, maxl, kof;
                 
                 	.DSEG
                 ;unsigned char rx_data[1],bufer[129], tx_data0[50] = {0x80, 0xAE, 0x80, 0xD5,0x80, 0x80,0x80, 0xA8,0x80, 0x3F,0x80, 0xD3,
                 ;0x80, 0x0,0x80, 0x40,0x80, 0x8D,0x80, 0x14,0x80, 0x20,0x80, 0x00,0x80,  0xA1, 0x80, 0xC8,0x80,
                 ;0xDA,0x80, 0x12,0x80, 0x81,0x80, 0xCF,0x80, 0xD9,0x80, 0xF1,0x80, 0xDB,0x80, 0x40,0x80, 0xA4,
                 ;0x80, 0xA6, 0x80, 0xAF };
                 ;// Voltage Reference: AVCC pin
                 ;#define ADC_VREF_TYPE ((0<<REFS1) | (1<<REFS0) | (0<<ADLAR))
                 ;
                 ;// Read the AD conversion result
                 ;unsigned int read_adc(unsigned char adc_input)
                 ; 0000 0027 {
                 
                 	.CSEG
                 _read_adc:
                 ; .FSTART _read_adc
                 ; 0000 0028 ADMUX=adc_input | ADC_VREF_TYPE;
000608 93aa      	ST   -Y,R26
                 ;	adc_input -> Y+0
000609 81e8      	LD   R30,Y
00060a 64e0      	ORI  R30,0x40
00060b 93e0 007c 	STS  124,R30
                 ; 0000 0029 // Delay needed for the stabilization of the ADC input voltage
                 ; 0000 002A delay_us(10);
                +
00060d e18b     +LDI R24 , LOW ( 27 )
                +__DELAY_USB_LOOP :
00060e 958a     +DEC R24
00060f f7f1     +BRNE __DELAY_USB_LOOP
                 	__DELAY_USB 27
                 ; 0000 002B // Start the AD conversion
                 ; 0000 002C ADCSRA|=(1<<ADSC);
000610 91e0 007a 	LDS  R30,122
000612 64e0      	ORI  R30,0x40
000613 93e0 007a 	STS  122,R30
                 ; 0000 002D // Wait for the AD conversion to complete
                 ; 0000 002E while ((ADCSRA & (1<<ADIF))==0);
                 _0x2B:
000615 91e0 007a 	LDS  R30,122
000617 71e0      	ANDI R30,LOW(0x10)
000618 f3e1      	BREQ _0x2B
                 ; 0000 002F ADCSRA|=(1<<ADIF);
000619 91e0 007a 	LDS  R30,122
00061b 61e0      	ORI  R30,0x10
00061c 93e0 007a 	STS  122,R30
                 ; 0000 0030 return ADCW;
00061e 91e0 0078 	LDS  R30,120
000620 91f0 0079 	LDS  R31,120+1
000622 9621      	ADIW R28,1
000623 9508      	RET
                 ; 0000 0031 }
                 ; .FEND
                 ;
                 ;
                 ;// TWI functions
                 ;#include <twi.h>
                 ;
                 ;void display(void)
                 ; 0000 0038 {
                 _display:
                 ; .FSTART _display
                 ; 0000 0039     bufer[0] = 0x80;
000624 e8e0      	LDI  R30,LOW(128)
000625 93e0 0713 	STS  _bufer,R30
                 ; 0000 003A     bufer[1] = 0x21;
000627 e2e1      	LDI  R30,LOW(33)
                +
000628 93e0 0714+STS _bufer + ( 1 ) , R30
                 	__PUTB1MN _bufer,1
                 ; 0000 003B     bufer[2] = 0x80;
00062a e8e0      	LDI  R30,LOW(128)
                +
00062b 93e0 0715+STS _bufer + ( 2 ) , R30
                 	__PUTB1MN _bufer,2
                 ; 0000 003C     bufer[3] = 0;
00062d e0e0      	LDI  R30,LOW(0)
                +
00062e 93e0 0716+STS _bufer + ( 3 ) , R30
                 	__PUTB1MN _bufer,3
                 ; 0000 003D     bufer[4] = 0x80;
000630 e8e0      	LDI  R30,LOW(128)
                +
000631 93e0 0717+STS _bufer + ( 4 ) , R30
                 	__PUTB1MN _bufer,4
                 ; 0000 003E     bufer[5] = 127;
000633 e7ef      	LDI  R30,LOW(127)
                +
000634 93e0 0718+STS _bufer + ( 5 ) , R30
                 	__PUTB1MN _bufer,5
                 ; 0000 003F     bufer[6] = 0x80;
000636 e8e0      	LDI  R30,LOW(128)
                +
000637 93e0 0719+STS _bufer + ( 6 ) , R30
                 	__PUTB1MN _bufer,6
                 ; 0000 0040     bufer[7] = 0x22;
000639 e2e2      	LDI  R30,LOW(34)
                +
00063a 93e0 071a+STS _bufer + ( 7 ) , R30
                 	__PUTB1MN _bufer,7
                 ; 0000 0041     bufer[8] = 0x80;
00063c e8e0      	LDI  R30,LOW(128)
                +
00063d 93e0 071b+STS _bufer + ( 8 ) , R30
                 	__PUTB1MN _bufer,8
                 ; 0000 0042     bufer[9] = 0;
00063f e0e0      	LDI  R30,LOW(0)
                +
000640 93e0 071c+STS _bufer + ( 9 ) , R30
                 	__PUTB1MN _bufer,9
                 ; 0000 0043     bufer[10] = 0x80;
000642 e8e0      	LDI  R30,LOW(128)
                +
000643 93e0 071d+STS _bufer + ( 10 ) , R30
                 	__PUTB1MN _bufer,10
                 ; 0000 0044     bufer[11] = 7  ;
000645 e0e7      	LDI  R30,LOW(7)
                +
000646 93e0 071e+STS _bufer + ( 11 ) , R30
                 	__PUTB1MN _bufer,11
                 ; 0000 0045     twi_master_trans(0x3C, bufer, 12, rx_data, 0) ;
000648 940e 0b87 	CALL SUBOPT_0x3
00064a e0ec      	LDI  R30,LOW(12)
00064b 940e 0b8e 	CALL SUBOPT_0x4
                 ; 0000 0046 
                 ; 0000 0047        for (i=0; i<1024; ) {
00064d 2433      	CLR  R3
00064e 2444      	CLR  R4
                 _0x2F:
00064f e0e0      	LDI  R30,LOW(1024)
000650 e0f4      	LDI  R31,HIGH(1024)
000651 163e      	CP   R3,R30
000652 064f      	CPC  R4,R31
000653 f524      	BRGE _0x30
                 ; 0000 0048       // send a bunch of data in one xmission
                 ; 0000 0049         bufer[0] = 0x40;
000654 e4e0      	LDI  R30,LOW(64)
000655 93e0 0713 	STS  _bufer,R30
                 ; 0000 004A         for (n=0; n<128; n++) {
000657 2477      	CLR  R7
000658 2488      	CLR  R8
                 _0x32:
000659 e8e0      	LDI  R30,LOW(128)
00065a e0f0      	LDI  R31,HIGH(128)
00065b 167e      	CP   R7,R30
00065c 068f      	CPC  R8,R31
00065d f4a4      	BRGE _0x33
                 ; 0000 004B         bufer[n+1] = buffer[i++];
                +
00065e 2de7     +MOV R30 , R7
00065f 2df8     +MOV R31 , R8
                 	__GETW1R 7,8
                +
000660 5eec     +SUBI R30 , LOW ( - _bufer - ( 1 ) )
000661 4ff8     +SBCI R31 , HIGH ( - _bufer - ( 1 ) )
                 	__ADDW1MN _bufer,1
000662 01df      	MOVW R26,R30
                +
000663 2de3     +MOV R30 , R3
000664 2df4     +MOV R31 , R4
                 	__GETW1R 3,4
000665 9631      	ADIW R30,1
                +
000666 2e3e     +MOV R3 , R30
000667 2e4f     +MOV R4 , R31
                 	__PUTW1R 3,4
000668 9731      	SBIW R30,1
000669 5fea      	SUBI R30,LOW(-_buffer)
00066a 4ffc      	SBCI R31,HIGH(-_buffer)
00066b 81e0      	LD   R30,Z
00066c 93ec      	ST   X,R30
                 ; 0000 004C         }
00066d e0e1      	LDI  R30,LOW(1)
00066e e0f0      	LDI  R31,HIGH(1)
                +
00066f 0e7e     +ADD R7 , R30
000670 1e8f     +ADC R8 , R31
                 	__ADDWRR 7,8,30,31
000671 cfe7      	RJMP _0x32
                 _0x33:
                 ; 0000 004D 
                 ; 0000 004E         twi_master_trans(0x3C, bufer, 129, rx_data, 0) ;
000672 940e 0b87 	CALL SUBOPT_0x3
000674 e8e1      	LDI  R30,LOW(129)
000675 940e 0b8e 	CALL SUBOPT_0x4
                 ; 0000 004F     }
000677 cfd7      	RJMP _0x2F
                 _0x30:
                 ; 0000 0050 }
000678 9508      	RET
                 ; .FEND
                 ;
                 ;
                 ;void main(void)
                 ; 0000 0054 {
                 _main:
                 ; .FSTART _main
                 ; 0000 0055 // Declare your local variables here
                 ; 0000 0056 // Crystal Oscillator division factor: 1
                 ; 0000 0057 #pragma optsize-
                 ; 0000 0058 CLKPR=(1<<CLKPCE);
000679 e8e0      	LDI  R30,LOW(128)
00067a 93e0 0061 	STS  97,R30
                 ; 0000 0059 CLKPR=(0<<CLKPCE) | (0<<CLKPS3) | (0<<CLKPS2) | (0<<CLKPS1) | (0<<CLKPS0);
00067c e0e0      	LDI  R30,LOW(0)
00067d 93e0 0061 	STS  97,R30
                 ; 0000 005A #ifdef _OPTIMIZE_SIZE_
                 ; 0000 005B #pragma optsize+
                 ; 0000 005C #endif
                 ; 0000 005D 
                 ; 0000 005E // Input/Output Ports initialization
                 ; 0000 005F // Port B initialization
                 ; 0000 0060 // Function: Bit7=In Bit6=In Bit5=In Bit4=In Bit3=In Bit2=In Bit1=In Bit0=In
                 ; 0000 0061 DDRB=(0<<DDB7) | (0<<DDB6) | (0<<DDB5) | (0<<DDB4) | (3<<DDB3) | (0<<DDB2) | (0<<DDB1) | (0<<DDB0);
00067f e1e8      	LDI  R30,LOW(24)
000680 b9e4      	OUT  0x4,R30
                 ; 0000 0062 // State: Bit7=T Bit6=T Bit5=T Bit4=T Bit3=T Bit2=T Bit1=T Bit0=T
                 ; 0000 0063 PORTB=(0<<PORTB7) | (0<<PORTB6) | (0<<PORTB5) | (0<<PORTB4) | (0<<PORTB3) | (0<<PORTB2) | (0<<PORTB1) | (0<<PORTB0);
000681 e0e0      	LDI  R30,LOW(0)
000682 b9e5      	OUT  0x5,R30
                 ; 0000 0064 
                 ; 0000 0065 // Port C initialization
                 ; 0000 0066 // Function: Bit6=In Bit5=In Bit4=In Bit3=In Bit2=In Bit1=In Bit0=In
                 ; 0000 0067 DDRC=(0<<DDC6) | (0<<DDC5) | (0<<DDC4) | (0<<DDC3) | (0<<DDC2) | (0<<DDC1) | (0<<DDC0);
000683 b9e7      	OUT  0x7,R30
                 ; 0000 0068 // State: Bit6=T Bit5=T Bit4=T Bit3=T Bit2=T Bit1=T Bit0=T
                 ; 0000 0069 PORTC=(0<<PORTC6) | (0<<PORTC5) | (0<<PORTC4) | (1<<PORTC3) | (0<<PORTC2) | (0<<PORTC1) | (0<<PORTC0);
000684 e0e8      	LDI  R30,LOW(8)
000685 b9e8      	OUT  0x8,R30
                 ; 0000 006A 
                 ; 0000 006B // Port D initialization
                 ; 0000 006C // Function: Bit7=In Bit6=In Bit5=In Bit4=In Bit3=In Bit2=In Bit1=In Bit0=In
                 ; 0000 006D DDRD=(0<<DDD7) | (0<<DDD6) | (0<<DDD5) | (0<<DDD4) | (1<<DDD3) | (0<<DDD2) | (0<<DDD1) | (0<<DDD0);
000686 b9ea      	OUT  0xA,R30
                 ; 0000 006E // State: Bit7=T Bit6=T Bit5=T Bit4=T Bit3=T Bit2=T Bit1=T Bit0=T
                 ; 0000 006F PORTD=(0<<PORTD7) | (0<<PORTD6) | (0<<PORTD5) | (0<<PORTD4) | (0<<PORTD3) | (0<<PORTD2) | (0<<PORTD1) | (0<<PORTD0);
000687 e0e0      	LDI  R30,LOW(0)
000688 b9eb      	OUT  0xB,R30
                 ; 0000 0070 
                 ; 0000 0071 // Timer/Counter 0 initialization
                 ; 0000 0072 // Clock source: System Clock
                 ; 0000 0073 // Clock value: Timer 0 Stopped
                 ; 0000 0074 // Mode: Normal top=0xFF
                 ; 0000 0075 // OC0A output: Disconnected
                 ; 0000 0076 // OC0B output: Disconnected
                 ; 0000 0077 TCCR0A=(0<<COM0A1) | (0<<COM0A0) | (0<<COM0B1) | (0<<COM0B0) | (0<<WGM01) | (0<<WGM00);
000689 bde4      	OUT  0x24,R30
                 ; 0000 0078 TCCR0B=(0<<WGM02) | (0<<CS02) | (0<<CS01) | (0<<CS00);
00068a bde5      	OUT  0x25,R30
                 ; 0000 0079 TCNT0=0x00;
00068b bde6      	OUT  0x26,R30
                 ; 0000 007A OCR0A=0x00;
00068c bde7      	OUT  0x27,R30
                 ; 0000 007B OCR0B=0x00;
00068d bde8      	OUT  0x28,R30
                 ; 0000 007C 
                 ; 0000 007D // Timer/Counter 1 initialization
                 ; 0000 007E // Clock source: System Clock
                 ; 0000 007F // Clock value: Timer1 Stopped
                 ; 0000 0080 // Mode: Normal top=0xFFFF
                 ; 0000 0081 // OC1A output: Disconnected
                 ; 0000 0082 // OC1B output: Disconnected
                 ; 0000 0083 // Noise Canceler: Off
                 ; 0000 0084 // Input Capture on Falling Edge
                 ; 0000 0085 // Timer1 Overflow Interrupt: Off
                 ; 0000 0086 // Input Capture Interrupt: Off
                 ; 0000 0087 // Compare A Match Interrupt: Off
                 ; 0000 0088 // Compare B Match Interrupt: Off
                 ; 0000 0089 TCCR1A=(0<<COM1A1) | (0<<COM1A0) | (0<<COM1B1) | (0<<COM1B0) | (0<<WGM11) | (0<<WGM10);
00068e 93e0 0080 	STS  128,R30
                 ; 0000 008A TCCR1B=(0<<ICNC1) | (0<<ICES1) | (0<<WGM13) | (0<<WGM12) | (0<<CS12) | (0<<CS11) | (0<<CS10);
000690 93e0 0081 	STS  129,R30
                 ; 0000 008B TCNT1H=0x00;
000692 93e0 0085 	STS  133,R30
                 ; 0000 008C TCNT1L=0x00;
000694 93e0 0084 	STS  132,R30
                 ; 0000 008D ICR1H=0x00;
000696 93e0 0087 	STS  135,R30
                 ; 0000 008E ICR1L=0x00;
000698 93e0 0086 	STS  134,R30
                 ; 0000 008F OCR1AH=0x00;
00069a 93e0 0089 	STS  137,R30
                 ; 0000 0090 OCR1AL=0x00;
00069c 93e0 0088 	STS  136,R30
                 ; 0000 0091 OCR1BH=0x00;
00069e 93e0 008b 	STS  139,R30
                 ; 0000 0092 OCR1BL=0x00;
0006a0 93e0 008a 	STS  138,R30
                 ; 0000 0093 
                 ; 0000 0094 // Timer/Counter 2 initialization
                 ; 0000 0095 // Clock source: System Clock
                 ; 0000 0096 // Clock value: 16000,000 kHz
                 ; 0000 0097 // Mode: Fast PWM top=0xFF
                 ; 0000 0098 // OC2A output: Non-Inverted PWM
                 ; 0000 0099 // OC2B output: Non-Inverted PWM
                 ; 0000 009A // Timer Period: 0,016 ms
                 ; 0000 009B // Output Pulse(s):
                 ; 0000 009C // OC2A Period: 0,016 ms Width: 0 us
                 ; 0000 009D // OC2B Period: 0,016 ms Width: 0 us
                 ; 0000 009E ASSR=(0<<EXCLK) | (0<<AS2);
0006a2 93e0 00b6 	STS  182,R30
                 ; 0000 009F TCCR2A=(1<<COM2A1) | (0<<COM2A0) | (1<<COM2B1) | (0<<COM2B0) | (1<<WGM21) | (1<<WGM20);
0006a4 eae3      	LDI  R30,LOW(163)
0006a5 93e0 00b0 	STS  176,R30
                 ; 0000 00A0 TCCR2B=(0<<WGM22) | (0<<CS22) | (0<<CS21) | (1<<CS20);
0006a7 e0e1      	LDI  R30,LOW(1)
0006a8 93e0 00b1 	STS  177,R30
                 ; 0000 00A1 TCNT2=0x00;
0006aa e0e0      	LDI  R30,LOW(0)
0006ab 93e0 00b2 	STS  178,R30
                 ; 0000 00A2 OCR2A=0x00;
0006ad 940e 0b96 	CALL SUBOPT_0x5
                 ; 0000 00A3 OCR2B=0x00;
                 ; 0000 00A4 
                 ; 0000 00A5 // Timer/Counter 0 Interrupt(s) initialization
                 ; 0000 00A6 TIMSK0=(0<<OCIE0B) | (0<<OCIE0A) | (0<<TOIE0);
0006af e0e0      	LDI  R30,LOW(0)
0006b0 93e0 006e 	STS  110,R30
                 ; 0000 00A7 
                 ; 0000 00A8 // Timer/Counter 1 Interrupt(s) initialization
                 ; 0000 00A9 TIMSK1=(0<<ICIE1) | (0<<OCIE1B) | (0<<OCIE1A) | (0<<TOIE1);
0006b2 93e0 006f 	STS  111,R30
                 ; 0000 00AA 
                 ; 0000 00AB // Timer/Counter 2 Interrupt(s) initialization
                 ; 0000 00AC TIMSK2=(0<<OCIE2B) | (0<<OCIE2A) | (0<<TOIE2);
0006b4 93e0 0070 	STS  112,R30
                 ; 0000 00AD 
                 ; 0000 00AE // External Interrupt(s) initialization
                 ; 0000 00AF // INT0: Off
                 ; 0000 00B0 // INT1: Off
                 ; 0000 00B1 // Interrupt on any change on pins PCINT0-7: Off
                 ; 0000 00B2 // Interrupt on any change on pins PCINT8-14: Off
                 ; 0000 00B3 // Interrupt on any change on pins PCINT16-23: Off
                 ; 0000 00B4 EICRA=(0<<ISC11) | (0<<ISC10) | (0<<ISC01) | (0<<ISC00);
0006b6 93e0 0069 	STS  105,R30
                 ; 0000 00B5 EIMSK=(0<<INT1) | (0<<INT0);
0006b8 bbed      	OUT  0x1D,R30
                 ; 0000 00B6 PCICR=(0<<PCIE2) | (0<<PCIE1) | (0<<PCIE0);
0006b9 93e0 0068 	STS  104,R30
                 ; 0000 00B7 
                 ; 0000 00B8 // USART initialization
                 ; 0000 00B9 // USART disabled
                 ; 0000 00BA UCSR0B=(0<<RXCIE0) | (0<<TXCIE0) | (0<<UDRIE0) | (0<<RXEN0) | (0<<TXEN0) | (0<<UCSZ02) | (0<<RXB80) | (0<<TXB80);
0006bb 93e0 00c1 	STS  193,R30
                 ; 0000 00BB 
                 ; 0000 00BC // Analog Comparator initialization
                 ; 0000 00BD // Analog Comparator: Off
                 ; 0000 00BE // The Analog Comparator's positive input is
                 ; 0000 00BF // connected to the AIN0 pin
                 ; 0000 00C0 // The Analog Comparator's negative input is
                 ; 0000 00C1 // connected to the AIN1 pin
                 ; 0000 00C2 ACSR=(1<<ACD) | (0<<ACBG) | (0<<ACO) | (0<<ACI) | (0<<ACIE) | (0<<ACIC) | (0<<ACIS1) | (0<<ACIS0);
0006bd e8e0      	LDI  R30,LOW(128)
0006be bfe0      	OUT  0x30,R30
                 ; 0000 00C3 ADCSRB=(0<<ACME);
0006bf e0e0      	LDI  R30,LOW(0)
0006c0 93e0 007b 	STS  123,R30
                 ; 0000 00C4 // Digital input buffer on AIN0: On
                 ; 0000 00C5 // Digital input buffer on AIN1: On
                 ; 0000 00C6 DIDR1=(0<<AIN0D) | (0<<AIN1D);
0006c2 93e0 007f 	STS  127,R30
                 ; 0000 00C7 
                 ; 0000 00C8 // ADC initialization
                 ; 0000 00C9 // ADC disabled
                 ; 0000 00CA ADCSRA=(0<<ADEN) | (0<<ADSC) | (0<<ADATE) | (0<<ADIF) | (0<<ADIE) | (0<<ADPS2) | (0<<ADPS1) | (0<<ADPS0);
0006c4 93e0 007a 	STS  122,R30
                 ; 0000 00CB 
                 ; 0000 00CC // SPI initialization
                 ; 0000 00CD // SPI disabled
                 ; 0000 00CE SPCR=(0<<SPIE) | (0<<SPE) | (0<<DORD) | (0<<MSTR) | (0<<CPOL) | (0<<CPHA) | (0<<SPR1) | (0<<SPR0);
0006c6 bdec      	OUT  0x2C,R30
                 ; 0000 00CF 
                 ; 0000 00D0 
                 ; 0000 00D1 // ADC initialization
                 ; 0000 00D2 // ADC Clock frequency: 1000,000 kHz
                 ; 0000 00D3 // ADC Voltage Reference: AVCC pin
                 ; 0000 00D4 // ADC Auto Trigger Source: ADC Stopped
                 ; 0000 00D5 // Digital input buffers on ADC0: On, ADC1: On, ADC2: On, ADC3: On
                 ; 0000 00D6 // ADC4: On, ADC5: On
                 ; 0000 00D7 DIDR0=(0<<ADC5D) | (0<<ADC4D) | (0<<ADC3D) | (0<<ADC2D) | (0<<ADC1D) | (0<<ADC0D);
0006c7 93e0 007e 	STS  126,R30
                 ; 0000 00D8 ADMUX=ADC_VREF_TYPE;
0006c9 e4e0      	LDI  R30,LOW(64)
0006ca 93e0 007c 	STS  124,R30
                 ; 0000 00D9 ADCSRA=(1<<ADEN) | (0<<ADSC) | (0<<ADATE) | (0<<ADIF) | (0<<ADIE) | (0<<ADPS2) | (1<<ADPS1) | (1<<ADPS0);
0006cc e8e3      	LDI  R30,LOW(131)
0006cd 93e0 007a 	STS  122,R30
                 ; 0000 00DA ADCSRB=(0<<ADTS2) | (0<<ADTS1) | (0<<ADTS0);
0006cf e0e0      	LDI  R30,LOW(0)
0006d0 93e0 007b 	STS  123,R30
                 ; 0000 00DB 
                 ; 0000 00DC 
                 ; 0000 00DD // TWI initialization
                 ; 0000 00DE // Mode: TWI Master
                 ; 0000 00DF // Bit Rate: 400 kHz
                 ; 0000 00E0 twi_master_init(400);
0006d2 e9a0      	LDI  R26,LOW(400)
0006d3 e0b1      	LDI  R27,HIGH(400)
0006d4 940e 0934 	CALL _twi_master_init
                 ; 0000 00E1 
                 ; 0000 00E2 // Global enable interrupts
                 ; 0000 00E3 #asm("sei")
0006d6 9478      	sei
                 ; 0000 00E4 twi_master_trans(0x3C, tx_data0, 50, rx_data, 0);
0006d7 e3ec      	LDI  R30,LOW(60)
0006d8 93ea      	ST   -Y,R30
0006d9 e9e4      	LDI  R30,LOW(_tx_data0)
0006da e0f7      	LDI  R31,HIGH(_tx_data0)
0006db 93fa      	ST   -Y,R31
0006dc 93ea      	ST   -Y,R30
0006dd e3e2      	LDI  R30,LOW(50)
0006de 940e 0b8e 	CALL SUBOPT_0x4
                 ; 0000 00E5 time = 60;
0006e0 e3ec      	LDI  R30,LOW(60)
0006e1 e0f0      	LDI  R31,HIGH(60)
                +
0006e2 2e9e     +MOV R9 , R30
0006e3 2eaf     +MOV R10 , R31
                 	__PUTW1R 9,10
                 ; 0000 00E6 kof =  read_adc(3);
0006e4 e0a3      	LDI  R26,LOW(3)
0006e5 df22      	RCALL _read_adc
0006e6 93e0 0710 	STS  _kof,R30
0006e8 93f0 0711 	STS  _kof+1,R31
                 ; 0000 00E7 met = kof/11;
0006ea 91a0 0710 	LDS  R26,_kof
0006ec 91b0 0711 	LDS  R27,_kof+1
0006ee e0eb      	LDI  R30,LOW(11)
0006ef e0f0      	LDI  R31,HIGH(11)
0006f0 940e 0d74 	CALL __DIVW21
                +
0006f2 2ebe     +MOV R11 , R30
0006f3 2ecf     +MOV R12 , R31
                 	__PUTW1R 11,12
                 ; 0000 00E8 kof = kof/7;
0006f4 91a0 0710 	LDS  R26,_kof
0006f6 91b0 0711 	LDS  R27,_kof+1
0006f8 e0e7      	LDI  R30,LOW(7)
0006f9 e0f0      	LDI  R31,HIGH(7)
0006fa 940e 0d74 	CALL __DIVW21
0006fc 93e0 0710 	STS  _kof,R30
0006fe 93f0 0711 	STS  _kof+1,R31
                 ; 0000 00E9 while ( time  >0)
                 _0x34:
000700 2400      	CLR  R0
000701 1409      	CP   R0,R9
000702 040a      	CPC  R0,R10
000703 f00c      	BRLT PC+2
000704 c1fd      	RJMP _0x36
                 ; 0000 00EA {
                 ; 0000 00EB     clearDisplay();
000705 ddcd      	RCALL _clearDisplay
                 ; 0000 00EC     for(a = 63; a >= 0; a--)
000706 e3ef      	LDI  R30,LOW(63)
000707 e0f0      	LDI  R31,HIGH(63)
                +
000708 2e5e     +MOV R5 , R30
000709 2e6f     +MOV R6 , R31
                 	__PUTW1R 5,6
                 _0x38:
00070a 2400      	CLR  R0
00070b 1450      	CP   R5,R0
00070c 0460      	CPC  R6,R0
00070d f0f4      	BRLT _0x39
                 ; 0000 00ED     {
                 ; 0000 00EE         OCR2A = 0;
00070e 940e 0b9c 	CALL SUBOPT_0x6
                 ; 0000 00EF         OCR2B = a*4;
                 ; 0000 00F0         x = read_adc(0);
000710 940e 0ba5 	CALL SUBOPT_0x7
                 ; 0000 00F1         y = read_adc(1);
000712 940e 0bab 	CALL SUBOPT_0x8
                 ; 0000 00F2         x = x-y;
000714 940e 0bb3 	CALL SUBOPT_0x9
000716 940e 0bb8 	CALL SUBOPT_0xA
                 ; 0000 00F3         if (x<maxl) maxl = x;
000718 f414      	BRGE _0x3A
000719 940e 0bc1 	CALL SUBOPT_0xB
                 ; 0000 00F4         if (x>maxr) maxr = x;
                 _0x3A:
00071b 940e 0bc6 	CALL SUBOPT_0xC
00071d f414      	BRGE _0x3B
00071e 940e 0bcd 	CALL SUBOPT_0xD
                 ; 0000 00F5         x = x/16+64;
                 _0x3B:
000720 940e 0bd2 	CALL SUBOPT_0xE
                 ; 0000 00F6         y = y/16;
                 ; 0000 00F7         y = y + 32;
000722 940e 0be6 	CALL SUBOPT_0xF
000724 940e 0beb 	CALL SUBOPT_0x10
                 ; 0000 00F8         drawLine(x0,y0,x,y,1);
                 ; 0000 00F9         x0 = x; y0 = y;
                 ; 0000 00FA     }
                +
000726 2de5     +MOV R30 , R5
000727 2df6     +MOV R31 , R6
                 	__GETW1R 5,6
000728 9731      	SBIW R30,1
                +
000729 2e5e     +MOV R5 , R30
00072a 2e6f     +MOV R6 , R31
                 	__PUTW1R 5,6
00072b cfde      	RJMP _0x38
                 _0x39:
                 ; 0000 00FB     for(a = 0; a < 64; a++)
00072c 2455      	CLR  R5
00072d 2466      	CLR  R6
                 _0x3D:
00072e e4e0      	LDI  R30,LOW(64)
00072f e0f0      	LDI  R31,HIGH(64)
000730 165e      	CP   R5,R30
000731 066f      	CPC  R6,R31
000732 f00c      	BRLT PC+2
000733 c053      	RJMP _0x3E
                 ; 0000 00FC     {
                 ; 0000 00FD         OCR2A = a*4;
000734 2de5      	MOV  R30,R5
000735 0fee      	LSL  R30
000736 0fee      	LSL  R30
000737 940e 0b96 	CALL SUBOPT_0x5
                 ; 0000 00FE         OCR2B = 0;
                 ; 0000 00FF         y = read_adc(0);
000739 940e 0c0f 	CALL SUBOPT_0x11
                 ; 0000 0100         x = read_adc(1);
00073b 940e 0c17 	CALL SUBOPT_0x12
                 ; 0000 0101         x = y-x;
00073d 940e 0c1d 	CALL SUBOPT_0x13
                 ; 0000 0102         if (x<maxl) maxl = x;
00073f f414      	BRGE _0x3F
000740 940e 0bc1 	CALL SUBOPT_0xB
                 ; 0000 0103         if (x>maxr) maxr = x;
                 _0x3F:
000742 940e 0bc6 	CALL SUBOPT_0xC
000744 f414      	BRGE _0x40
000745 940e 0bcd 	CALL SUBOPT_0xD
                 ; 0000 0104         x = x/16+64;
                 _0x40:
000747 940e 0bd2 	CALL SUBOPT_0xE
                 ; 0000 0105         y = y/16;
                 ; 0000 0106         y = 32-y;
000749 940e 0c29 	CALL SUBOPT_0x14
                 ; 0000 0107         drawLine(x0,y0,x,y,1);
                 ; 0000 0108         x0 = x; y0 = y;
                 ; 0000 0109         if(a == 0)
00074b 2c05      	MOV  R0,R5
00074c 2806      	OR   R0,R6
00074d f5a1      	BRNE _0x41
                 ; 0000 010A         {
                 ; 0000 010B            x = read_adc(1);
00074e 940e 0c17 	CALL SUBOPT_0x12
                 ; 0000 010C            a = read_adc(0);
000750 e0a0      	LDI  R26,LOW(0)
000751 940e 0c51 	CALL SUBOPT_0x15
                 ; 0000 010D            x = (a-x)/4+256;
                 ; 0000 010E           if(x<256)
000753 f44c      	BRGE _0x42
                 ; 0000 010F           {
                 ; 0000 0110             x = 256-x;
000754 940e 0c66 	CALL SUBOPT_0x16
                 ; 0000 0111             drawChar(2,7,'-');
000756 e0e2      	LDI  R30,LOW(2)
000757 e0f0      	LDI  R31,HIGH(2)
000758 940e 0c6d 	CALL SUBOPT_0x17
00075a e2ad      	LDI  R26,LOW(45)
00075b ddcc      	RCALL _drawChar
                 ; 0000 0112           } else x = x - 256;
00075c c004      	RJMP _0x43
                 _0x42:
00075d e0e0      	LDI  R30,LOW(256)
00075e e0f1      	LDI  R31,HIGH(256)
                +
00075f 1ade     +SUB R13 , R30
000760 0aef     +SBC R14 , R31
                 	__SUBWRR 13,14,30,31
                 ; 0000 0113             if(x>99)
                 _0x43:
000761 e6e3      	LDI  R30,LOW(99)
000762 e0f0      	LDI  R31,HIGH(99)
000763 15ed      	CP   R30,R13
000764 05fe      	CPC  R31,R14
000765 f434      	BRGE _0x44
                 ; 0000 0114             {
                 ; 0000 0115                 drawChar(19,7,'L');
000766 940e 0c74 	CALL SUBOPT_0x18
000768 940e 0c77 	CALL SUBOPT_0x19
                 ; 0000 0116                 drawChar(20,7,'V');
00076a e5a6      	LDI  R26,LOW(86)
00076b c015      	RJMP _0x63
                 ; 0000 0117             }
                 ; 0000 0118             else
                 _0x44:
                 ; 0000 0119             {
                 ; 0000 011A                 if(x<10)
00076c 940e 0c7d 	CALL SUBOPT_0x1A
00076e f41c      	BRGE _0x46
                 ; 0000 011B                 drawChar(3,7,0x30+x);
00076f e0e3      	LDI  R30,LOW(3)
000770 e0f0      	LDI  R31,HIGH(3)
000771 c00b      	RJMP _0x64
                 ; 0000 011C                 else
                 _0x46:
                 ; 0000 011D                 {
                 ; 0000 011E                 a = x/10;
000772 940e 0c82 	CALL SUBOPT_0x1B
                 ; 0000 011F                 x = x - a*10;
                 ; 0000 0120                 drawChar(3,7,0x30+a);
000774 e0e3      	LDI  R30,LOW(3)
000775 e0f0      	LDI  R31,HIGH(3)
000776 940e 0c6d 	CALL SUBOPT_0x17
000778 2da5      	MOV  R26,R5
000779 5da0      	SUBI R26,-LOW(48)
00077a ddad      	RCALL _drawChar
                 ; 0000 0121                 drawChar(4,7,0x30+x);
00077b e0e4      	LDI  R30,LOW(4)
00077c e0f0      	LDI  R31,HIGH(4)
                 _0x64:
00077d 93fa      	ST   -Y,R31
00077e 93ea      	ST   -Y,R30
00077f 940e 0c91 	CALL SUBOPT_0x1C
                 _0x63:
000781 dda6      	RCALL _drawChar
                 ; 0000 0122                 }
                 ; 0000 0123             }
                 ; 0000 0124 
                 ; 0000 0125         }
                 ; 0000 0126     }
                 _0x41:
000782 e0e1      	LDI  R30,LOW(1)
000783 e0f0      	LDI  R31,HIGH(1)
                +
000784 0e5e     +ADD R5 , R30
000785 1e6f     +ADC R6 , R31
                 	__ADDWRR 5,6,30,31
000786 cfa7      	RJMP _0x3D
                 _0x3E:
                 ; 0000 0127     drawPixel(64,0,1);
000787 940e 0c98 	CALL SUBOPT_0x1D
000789 940e 0c9d 	CALL SUBOPT_0x1E
00078b 940e 0ca2 	CALL SUBOPT_0x1F
                 ; 0000 0128     drawPixel(64,15,1);
00078d 940e 0ca7 	CALL SUBOPT_0x20
00078f 940e 0ca2 	CALL SUBOPT_0x1F
                 ; 0000 0129     drawPixel(64,30,1);
000791 940e 0cac 	CALL SUBOPT_0x21
000793 940e 0ca2 	CALL SUBOPT_0x1F
                 ; 0000 012A     drawPixel(64,34,1);
000795 940e 0cb1 	CALL SUBOPT_0x22
000797 940e 0ca2 	CALL SUBOPT_0x1F
                 ; 0000 012B     drawPixel(64,49,1);
000799 940e 0cb6 	CALL SUBOPT_0x23
00079b 940e 0ca2 	CALL SUBOPT_0x1F
                 ; 0000 012C     drawPixel(64,63,1);
00079d e3ef      	LDI  R30,LOW(63)
00079e e0f0      	LDI  R31,HIGH(63)
00079f 93fa      	ST   -Y,R31
0007a0 93ea      	ST   -Y,R30
0007a1 940e 0cbb 	CALL SUBOPT_0x24
                 ; 0000 012D     drawPixel(64+met,30,1);
0007a3 940e 0cac 	CALL SUBOPT_0x21
0007a5 940e 0cbb 	CALL SUBOPT_0x24
                 ; 0000 012E     drawPixel(64+met,34,1);
0007a7 940e 0cb1 	CALL SUBOPT_0x22
0007a9 940e 0cc6 	CALL SUBOPT_0x25
                 ; 0000 012F     drawPixel(64+met+met,30,1);
0007ab 940e 0cac 	CALL SUBOPT_0x21
0007ad 940e 0cc6 	CALL SUBOPT_0x25
                 ; 0000 0130     drawPixel(64+met+met,34,1);
0007af 940e 0cb1 	CALL SUBOPT_0x22
0007b1 940e 0cd3 	CALL SUBOPT_0x26
                 ; 0000 0131     drawPixel(64+met+met+met,30,1);
0007b3 940e 0cac 	CALL SUBOPT_0x21
0007b5 940e 0cd3 	CALL SUBOPT_0x26
                 ; 0000 0132     drawPixel(64+met+met+met,34,1);
0007b7 940e 0cb1 	CALL SUBOPT_0x22
0007b9 940e 0ce2 	CALL SUBOPT_0x27
                 ; 0000 0133 //    drawPixel(116,30,1);
                 ; 0000 0134 //    drawPixel(116,34,1);
                 ; 0000 0135     drawPixel(64-met,30,1);
0007bb 940e 0cac 	CALL SUBOPT_0x21
0007bd 940e 0ce2 	CALL SUBOPT_0x27
                 ; 0000 0136     drawPixel(64-met,34,1);
0007bf 940e 0cb1 	CALL SUBOPT_0x22
0007c1 940e 0ced 	CALL SUBOPT_0x28
                 ; 0000 0137     drawPixel(64-met-met,30,1);
0007c3 940e 0cac 	CALL SUBOPT_0x21
0007c5 940e 0ced 	CALL SUBOPT_0x28
                 ; 0000 0138     drawPixel(64-met-met,34,1);
0007c7 940e 0cb1 	CALL SUBOPT_0x22
0007c9 940e 0cfa 	CALL SUBOPT_0x29
                 ; 0000 0139     drawPixel(64-met-met-met,34,1);
0007cb 940e 0cb1 	CALL SUBOPT_0x22
0007cd 940e 0cfa 	CALL SUBOPT_0x29
                 ; 0000 013A     drawPixel(64-met-met-met,30,1);
0007cf 940e 0cac 	CALL SUBOPT_0x21
0007d1 940e 0cbb 	CALL SUBOPT_0x24
                 ; 0000 013B //    drawPixel(12,30,1);
                 ; 0000 013C //    drawPixel(12,34,1);
                 ; 0000 013D     drawPixel(64+met,49,1);
0007d3 940e 0cb6 	CALL SUBOPT_0x23
0007d5 940e 0cbb 	CALL SUBOPT_0x24
                 ; 0000 013E     drawPixel(64+met,15,1);
0007d7 940e 0ca7 	CALL SUBOPT_0x20
0007d9 940e 0ce2 	CALL SUBOPT_0x27
                 ; 0000 013F     drawPixel(64-met,49,1);
0007db 940e 0cb6 	CALL SUBOPT_0x23
0007dd 940e 0ce2 	CALL SUBOPT_0x27
                 ; 0000 0140     drawPixel(64-met,15,1);
0007df 940e 0ca7 	CALL SUBOPT_0x20
0007e1 e0a1      	LDI  R26,LOW(1)
0007e2 e0b0      	LDI  R27,0
0007e3 dd01      	RCALL _drawPixel
                 ; 0000 0141     drawString(0,7,":",2);
0007e4 e0e0      	LDI  R30,LOW(0)
0007e5 e0f0      	LDI  R31,HIGH(0)
0007e6 940e 0c6d 	CALL SUBOPT_0x17
                +
0007e8 e0e0     +LDI R30 , LOW ( _0x48 + ( 0 ) )
0007e9 e0f3     +LDI R31 , HIGH ( _0x48 + ( 0 ) )
                 	__POINTW1MN _0x48,0
0007ea 940e 0d09 	CALL SUBOPT_0x2A
                 ; 0000 0142     drawString(16,7,":",2);
0007ec e1e0      	LDI  R30,LOW(16)
0007ed e0f0      	LDI  R31,HIGH(16)
0007ee 940e 0c6d 	CALL SUBOPT_0x17
                +
0007f0 e0e3     +LDI R30 , LOW ( _0x48 + ( 3 ) )
0007f1 e0f3     +LDI R31 , HIGH ( _0x48 + ( 3 ) )
                 	__POINTW1MN _0x48,3
0007f2 940e 0d09 	CALL SUBOPT_0x2A
                 ; 0000 0143     drawChar(0,0,'+');
0007f4 940e 0c9d 	CALL SUBOPT_0x1E
0007f6 940e 0c9d 	CALL SUBOPT_0x1E
0007f8 e2ab      	LDI  R26,LOW(43)
0007f9 dd2e      	RCALL _drawChar
                 ; 0000 0144     drawChar(20,0,'-');
0007fa e1e4      	LDI  R30,LOW(20)
0007fb e0f0      	LDI  R31,HIGH(20)
0007fc 940e 0d0f 	CALL SUBOPT_0x2B
0007fe e2ad      	LDI  R26,LOW(45)
0007ff dd28      	RCALL _drawChar
                 ; 0000 0145     if((y>34)|(y<30)) time = 1800;
000800 940e 0d12 	CALL SUBOPT_0x2C
000802 f021      	BREQ _0x49
000803 e0e8      	LDI  R30,LOW(1800)
000804 e0f7      	LDI  R31,HIGH(1800)
                +
000805 2e9e     +MOV R9 , R30
000806 2eaf     +MOV R10 , R31
                 	__PUTW1R 9,10
                 ; 0000 0146     time = time - 1;
                 _0x49:
                +
000807 2de9     +MOV R30 , R9
000808 2dfa     +MOV R31 , R10
                 	__GETW1R 9,10
000809 9731      	SBIW R30,1
                +
00080a 2e9e     +MOV R9 , R30
00080b 2eaf     +MOV R10 , R31
                 	__PUTW1R 9,10
                 ; 0000 0147     delay_ms(44);
00080c e2ac      	LDI  R26,LOW(44)
00080d e0b0      	LDI  R27,0
00080e 940e 0d24 	CALL _delay_ms
                 ; 0000 0148     delay_us(700);
                +
000810 e788     +LDI R24 , LOW ( 1400 )
000811 e095     +LDI R25 , HIGH ( 1400 )
                +__DELAY_USW_LOOP :
000812 9701     +SBIW R24 , 1
000813 f7f1     +BRNE __DELAY_USW_LOOP
                 	__DELAY_USW 1400
                 ; 0000 0149     for(a = 63; a >= 0; a--)
000814 e3ef      	LDI  R30,LOW(63)
000815 e0f0      	LDI  R31,HIGH(63)
                +
000816 2e5e     +MOV R5 , R30
000817 2e6f     +MOV R6 , R31
                 	__PUTW1R 5,6
                 _0x4B:
000818 2400      	CLR  R0
000819 1450      	CP   R5,R0
00081a 0460      	CPC  R6,R0
00081b f0ec      	BRLT _0x4C
                 ; 0000 014A     {
                 ; 0000 014B         OCR2A = a*4;
00081c 2de5      	MOV  R30,R5
00081d 0fee      	LSL  R30
00081e 0fee      	LSL  R30
00081f 940e 0b96 	CALL SUBOPT_0x5
                 ; 0000 014C         OCR2B = 0;
                 ; 0000 014D         x = read_adc(1);
000821 940e 0c17 	CALL SUBOPT_0x12
                 ; 0000 014E         y = read_adc(0);
000823 940e 0c0f 	CALL SUBOPT_0x11
                 ; 0000 014F         x = y-x;
000825 940e 0c1d 	CALL SUBOPT_0x13
                 ; 0000 0150         if (x<maxl) maxl = x;
000827 f414      	BRGE _0x4D
000828 940e 0bc1 	CALL SUBOPT_0xB
                 ; 0000 0151         if (x>maxr) maxr = x;
                 _0x4D:
00082a 940e 0bc6 	CALL SUBOPT_0xC
00082c f414      	BRGE _0x4E
00082d 940e 0bcd 	CALL SUBOPT_0xD
                 ; 0000 0152         x = x/16+64;
                 _0x4E:
00082f 940e 0bd2 	CALL SUBOPT_0xE
                 ; 0000 0153         y = y/16;
                 ; 0000 0154         y = 32-y;
000831 940e 0c29 	CALL SUBOPT_0x14
                 ; 0000 0155         drawLine(x0,y0,x,y,1);
                 ; 0000 0156         x0 = x; y0 = y;
                 ; 0000 0157     }
                +
000833 2de5     +MOV R30 , R5
000834 2df6     +MOV R31 , R6
                 	__GETW1R 5,6
000835 9731      	SBIW R30,1
                +
000836 2e5e     +MOV R5 , R30
000837 2e6f     +MOV R6 , R31
                 	__PUTW1R 5,6
000838 cfdf      	RJMP _0x4B
                 _0x4C:
                 ; 0000 0158     for(a = 0; a < 64; a++)
000839 2455      	CLR  R5
00083a 2466      	CLR  R6
                 _0x50:
00083b e4e0      	LDI  R30,LOW(64)
00083c e0f0      	LDI  R31,HIGH(64)
00083d 165e      	CP   R5,R30
00083e 066f      	CPC  R6,R31
00083f f00c      	BRLT PC+2
000840 c052      	RJMP _0x51
                 ; 0000 0159     {
                 ; 0000 015A         OCR2A = 0;
000841 940e 0b9c 	CALL SUBOPT_0x6
                 ; 0000 015B         OCR2B = a * 4;
                 ; 0000 015C         y = read_adc(1);
000843 940e 0bab 	CALL SUBOPT_0x8
                 ; 0000 015D         x = read_adc(0);
000845 940e 0ba5 	CALL SUBOPT_0x7
                 ; 0000 015E         x = x-y;
000847 940e 0bb3 	CALL SUBOPT_0x9
000849 940e 0bb8 	CALL SUBOPT_0xA
                 ; 0000 015F         if (x<maxl) maxl = x;
00084b f414      	BRGE _0x52
00084c 940e 0bc1 	CALL SUBOPT_0xB
                 ; 0000 0160         if (x>maxr) maxr = x;
                 _0x52:
00084e 940e 0bc6 	CALL SUBOPT_0xC
000850 f414      	BRGE _0x53
000851 940e 0bcd 	CALL SUBOPT_0xD
                 ; 0000 0161         x = x/16+64;
                 _0x53:
000853 940e 0bd2 	CALL SUBOPT_0xE
                 ; 0000 0162         y = y/16;
                 ; 0000 0163         y = y + 32 ;
000855 940e 0be6 	CALL SUBOPT_0xF
000857 940e 0beb 	CALL SUBOPT_0x10
                 ; 0000 0164         drawLine(x0,y0,x,y,1);
                 ; 0000 0165         x0 = x; y0 = y;
                 ; 0000 0166       if(a == 0)
000859 2c05      	MOV  R0,R5
00085a 2806      	OR   R0,R6
00085b f591      	BRNE _0x54
                 ; 0000 0167       {
                 ; 0000 0168 
                 ; 0000 0169             x = read_adc(0);
00085c 940e 0ba5 	CALL SUBOPT_0x7
                 ; 0000 016A             a = read_adc(1);
00085e e0a1      	LDI  R26,LOW(1)
00085f 940e 0c51 	CALL SUBOPT_0x15
                 ; 0000 016B            x = (a-x)/4+256;
                 ; 0000 016C           if(x<256)
000861 f44c      	BRGE _0x55
                 ; 0000 016D           {
                 ; 0000 016E             x = 256-x;
000862 940e 0c66 	CALL SUBOPT_0x16
                 ; 0000 016F             drawChar(18,7,'-');
000864 e1e2      	LDI  R30,LOW(18)
000865 e0f0      	LDI  R31,HIGH(18)
000866 940e 0c6d 	CALL SUBOPT_0x17
000868 e2ad      	LDI  R26,LOW(45)
000869 dcbe      	RCALL _drawChar
                 ; 0000 0170           } else x = x - 256;
00086a c004      	RJMP _0x56
                 _0x55:
00086b e0e0      	LDI  R30,LOW(256)
00086c e0f1      	LDI  R31,HIGH(256)
                +
00086d 1ade     +SUB R13 , R30
00086e 0aef     +SBC R14 , R31
                 	__SUBWRR 13,14,30,31
                 ; 0000 0171             if(x>99)
                 _0x56:
00086f e6e3      	LDI  R30,LOW(99)
000870 e0f0      	LDI  R31,HIGH(99)
000871 15ed      	CP   R30,R13
000872 05fe      	CPC  R31,R14
000873 f434      	BRGE _0x57
                 ; 0000 0172             {
                 ; 0000 0173                 drawChar(19,7,'L');
000874 940e 0c74 	CALL SUBOPT_0x18
000876 940e 0c77 	CALL SUBOPT_0x19
                 ; 0000 0174                 drawChar(20,7,'V');
000878 e5a6      	LDI  R26,LOW(86)
000879 c013      	RJMP _0x65
                 ; 0000 0175             }
                 ; 0000 0176             else
                 _0x57:
                 ; 0000 0177             {
                 ; 0000 0178                 if(x<10)
00087a 940e 0c7d 	CALL SUBOPT_0x1A
00087c f41c      	BRGE _0x59
                 ; 0000 0179                 drawChar(19,7,0x30+x);
00087d e1e3      	LDI  R30,LOW(19)
00087e e0f0      	LDI  R31,HIGH(19)
00087f c009      	RJMP _0x66
                 ; 0000 017A                 else
                 _0x59:
                 ; 0000 017B                 {
                 ; 0000 017C                 a = x/10;
000880 940e 0c82 	CALL SUBOPT_0x1B
                 ; 0000 017D                 x = x - a*10;
                 ; 0000 017E                 drawChar(19,7,0x30+a);
000882 940e 0c74 	CALL SUBOPT_0x18
000884 2da5      	MOV  R26,R5
000885 5da0      	SUBI R26,-LOW(48)
000886 dca1      	RCALL _drawChar
                 ; 0000 017F                 drawChar(20,7,0x30+x);
000887 e1e4      	LDI  R30,LOW(20)
000888 e0f0      	LDI  R31,HIGH(20)
                 _0x66:
000889 93fa      	ST   -Y,R31
00088a 93ea      	ST   -Y,R30
00088b 940e 0c91 	CALL SUBOPT_0x1C
                 _0x65:
00088d dc9a      	RCALL _drawChar
                 ; 0000 0180                 }
                 ; 0000 0181             }
                 ; 0000 0182       }
                 ; 0000 0183     }
                 _0x54:
00088e e0e1      	LDI  R30,LOW(1)
00088f e0f0      	LDI  R31,HIGH(1)
                +
000890 0e5e     +ADD R5 , R30
000891 1e6f     +ADC R6 , R31
                 	__ADDWRR 5,6,30,31
000892 cfa8      	RJMP _0x50
                 _0x51:
                 ; 0000 0184     x = -maxl/kof;
000893 91e0 070e 	LDS  R30,_maxl
000895 91f0 070f 	LDS  R31,_maxl+1
000897 940e 0d2e 	CALL __ANEGW1
000899 01df      	MOVW R26,R30
00089a 91e0 0710 	LDS  R30,_kof
00089c 91f0 0711 	LDS  R31,_kof+1
00089e 940e 0d1f 	CALL SUBOPT_0x2D
                 ; 0000 0185                 if(x<10)
0008a0 f434      	BRGE _0x5B
                 ; 0000 0186                 {
                 ; 0000 0187                     drawChar(16,0,'0');
0008a1 e1e0      	LDI  R30,LOW(16)
0008a2 e0f0      	LDI  R31,HIGH(16)
0008a3 940e 0d0f 	CALL SUBOPT_0x2B
0008a5 e3a0      	LDI  R26,LOW(48)
0008a6 c008      	RJMP _0x67
                 ; 0000 0188                     drawChar(18,0,0x30+x);
                 ; 0000 0189                 }
                 ; 0000 018A                 else
                 _0x5B:
                 ; 0000 018B                 {
                 ; 0000 018C                     a = x/10;
0008a7 940e 0c82 	CALL SUBOPT_0x1B
                 ; 0000 018D                     x = x - a*10;
                 ; 0000 018E                     drawChar(16,0,0x30+a);
0008a9 e1e0      	LDI  R30,LOW(16)
0008aa e0f0      	LDI  R31,HIGH(16)
0008ab 940e 0d0f 	CALL SUBOPT_0x2B
0008ad 2da5      	MOV  R26,R5
0008ae 5da0      	SUBI R26,-LOW(48)
                 _0x67:
0008af dc78      	RCALL _drawChar
                 ; 0000 018F                     drawChar(18,0,0x30+x);
0008b0 e1e2      	LDI  R30,LOW(18)
0008b1 e0f0      	LDI  R31,HIGH(18)
0008b2 940e 0d0f 	CALL SUBOPT_0x2B
0008b4 2dad      	MOV  R26,R13
0008b5 5da0      	SUBI R26,-LOW(48)
0008b6 dc71      	RCALL _drawChar
                 ; 0000 0190                 }
                 ; 0000 0191                 drawChar(17,0,'.');
0008b7 e1e1      	LDI  R30,LOW(17)
0008b8 e0f0      	LDI  R31,HIGH(17)
0008b9 940e 0d0f 	CALL SUBOPT_0x2B
0008bb e2ae      	LDI  R26,LOW(46)
0008bc dc6b      	RCALL _drawChar
                 ; 0000 0192                 drawChar(19,0,'v');
0008bd e1e3      	LDI  R30,LOW(19)
0008be e0f0      	LDI  R31,HIGH(19)
0008bf 940e 0d0f 	CALL SUBOPT_0x2B
0008c1 e7a6      	LDI  R26,LOW(118)
0008c2 dc65      	RCALL _drawChar
                 ; 0000 0193     x = maxr/kof;
0008c3 91e0 0710 	LDS  R30,_kof
0008c5 91f0 0711 	LDS  R31,_kof+1
0008c7 91a0 070c 	LDS  R26,_maxr
0008c9 91b0 070d 	LDS  R27,_maxr+1
0008cb 940e 0d1f 	CALL SUBOPT_0x2D
                 ; 0000 0194                 if(x<10)
0008cd f434      	BRGE _0x5D
                 ; 0000 0195                 {
                 ; 0000 0196                     drawChar(1,0,'0');
0008ce e0e1      	LDI  R30,LOW(1)
0008cf e0f0      	LDI  R31,HIGH(1)
0008d0 940e 0d0f 	CALL SUBOPT_0x2B
0008d2 e3a0      	LDI  R26,LOW(48)
0008d3 c008      	RJMP _0x68
                 ; 0000 0197                     drawChar(3,0,0x30+x);
                 ; 0000 0198                 }
                 ; 0000 0199                 else
                 _0x5D:
                 ; 0000 019A                 {
                 ; 0000 019B                     a = x/10;
0008d4 940e 0c82 	CALL SUBOPT_0x1B
                 ; 0000 019C                     x = x - a*10;
                 ; 0000 019D                     drawChar(1,0,0x30+a);
0008d6 e0e1      	LDI  R30,LOW(1)
0008d7 e0f0      	LDI  R31,HIGH(1)
0008d8 940e 0d0f 	CALL SUBOPT_0x2B
0008da 2da5      	MOV  R26,R5
0008db 5da0      	SUBI R26,-LOW(48)
                 _0x68:
0008dc dc4b      	RCALL _drawChar
                 ; 0000 019E                     drawChar(3,0,0x30+x);
0008dd e0e3      	LDI  R30,LOW(3)
0008de e0f0      	LDI  R31,HIGH(3)
0008df 940e 0d0f 	CALL SUBOPT_0x2B
0008e1 2dad      	MOV  R26,R13
0008e2 5da0      	SUBI R26,-LOW(48)
0008e3 dc44      	RCALL _drawChar
                 ; 0000 019F                 }
                 ; 0000 01A0                 drawChar(2,0,'.');
0008e4 e0e2      	LDI  R30,LOW(2)
0008e5 e0f0      	LDI  R31,HIGH(2)
0008e6 940e 0d0f 	CALL SUBOPT_0x2B
0008e8 e2ae      	LDI  R26,LOW(46)
0008e9 dc3e      	RCALL _drawChar
                 ; 0000 01A1                 drawChar(4,0,'v');
0008ea e0e4      	LDI  R30,LOW(4)
0008eb e0f0      	LDI  R31,HIGH(4)
0008ec 940e 0d0f 	CALL SUBOPT_0x2B
0008ee e7a6      	LDI  R26,LOW(118)
0008ef dc38      	RCALL _drawChar
                 ; 0000 01A2     display();
0008f0 dd33      	RCALL _display
                 ; 0000 01A3     if((y>34)|(y<30)) time = 1200;
0008f1 940e 0d12 	CALL SUBOPT_0x2C
0008f3 f021      	BREQ _0x5F
0008f4 ebe0      	LDI  R30,LOW(1200)
0008f5 e0f4      	LDI  R31,HIGH(1200)
                +
0008f6 2e9e     +MOV R9 , R30
0008f7 2eaf     +MOV R10 , R31
                 	__PUTW1R 9,10
                 ; 0000 01A4     maxl = 0;
                 _0x5F:
0008f8 e0e0      	LDI  R30,LOW(0)
0008f9 93e0 070e 	STS  _maxl,R30
0008fb 93e0 070f 	STS  _maxl+1,R30
                 ; 0000 01A5     maxr = 0;
0008fd 93e0 070c 	STS  _maxr,R30
0008ff 93e0 070d 	STS  _maxr+1,R30
                 ; 0000 01A6 
                 ; 0000 01A7       // Place your code here
                 ; 0000 01A8 
                 ; 0000 01A9 
                 ; 0000 01AA }
000901 cdfe      	RJMP _0x34
                 _0x36:
                 ; 0000 01AB     bufer[0] = 0x80;
000902 e8e0      	LDI  R30,LOW(128)
000903 93e0 0713 	STS  _bufer,R30
                 ; 0000 01AC     bufer[1] = 0xAE;
000905 eaee      	LDI  R30,LOW(174)
                +
000906 93e0 0714+STS _bufer + ( 1 ) , R30
                 	__PUTB1MN _bufer,1
                 ; 0000 01AD     twi_master_trans(0x3C, bufer, 2, rx_data, 0) ;
000908 940e 0b87 	CALL SUBOPT_0x3
00090a e0e2      	LDI  R30,LOW(2)
00090b 940e 0b8e 	CALL SUBOPT_0x4
                 ; 0000 01AE 
                 ; 0000 01AF          #asm("cli")                     //    
00090d 94f8      	cli
                 ; 0000 01B0             TWCR = 0;
00090e e0e0      	LDI  R30,LOW(0)
00090f 93e0 00bc 	STS  188,R30
                 ; 0000 01B1             DDRC=DDRB=DDRD=0;
000911 b9ea      	OUT  0xA,R30
000912 b9e4      	OUT  0x4,R30
000913 b9e7      	OUT  0x7,R30
                 ; 0000 01B2             PORTC=PORTD=0;
000914 b9eb      	OUT  0xB,R30
000915 b9e8      	OUT  0x8,R30
                 ; 0000 01B3             PORTB=0x00;
000916 b9e5      	OUT  0x5,R30
                 ; 0000 01B4             ASSR=(0<<EXCLK) | (0<<AS2);
000917 93e0 00b6 	STS  182,R30
                 ; 0000 01B5         TCCR2A=(0<<COM2A1) | (0<<COM2A0) | (0<<COM2B1) | (0<<COM2B0) | (0<<WGM21) | (0<<WGM20);
000919 93e0 00b0 	STS  176,R30
                 ; 0000 01B6         TCCR2B=(0<<WGM22) | (0<<CS22) | (0<<CS21) | (0<<CS20);
00091b 93e0 00b1 	STS  177,R30
                 ; 0000 01B7 
                 ; 0000 01B8             ADMUX=00;
00091d 93e0 007c 	STS  124,R30
                 ; 0000 01B9             ADCSRA=0x00;
00091f 93e0 007a 	STS  122,R30
                 ; 0000 01BA             MCUCR = 0x10;
000921 e1e0      	LDI  R30,LOW(16)
000922 bfe5      	OUT  0x35,R30
                 ; 0000 01BB 
                 ; 0000 01BC             sleep_enable(); //  
000923 d003      	RCALL _sleep_enable
                 ; 0000 01BD             powerdown();
000924 940e 092b 	CALL _powerdown
                 ; 0000 01BE 
                 ; 0000 01BF 
                 ; 0000 01C0 }
                 _0x60:
000926 cfff      	RJMP _0x60
                 ; .FEND
                 
                 	.DSEG
                 _0x48:
000300           	.BYTE 0x6
                 	#ifndef __SLEEP_DEFINED__
                 	#endif
                 
                 	.CSEG
                 _sleep_enable:
                 ; .FSTART _sleep_enable
000927 b7e3         in   r30,power_ctrl_reg
000928 60e1         sbr  r30,__se_bit
000929 bfe3         out  power_ctrl_reg,r30
00092a 9508      	RET
                 ; .FEND
                 _powerdown:
                 ; .FSTART _powerdown
00092b b7e3         in   r30,power_ctrl_reg
00092c 7fe1         cbr  r30,__sm_mask
00092d 60e4         sbr  r30,__sm_powerdown
00092e bfe3         out  power_ctrl_reg,r30
00092f b7ef         in   r30,sreg
000930 9478         sei
000931 9588         sleep
000932 bfef         out  sreg,r30
000933 9508      	RET
                 ; .FEND
                 	#ifndef __SLEEP_DEFINED__
                 	#endif
                 
                 	.DSEG
                 
                 	.CSEG
                 _twi_master_init:
                 ; .FSTART _twi_master_init
000934 93ba      	ST   -Y,R27
000935 93aa      	ST   -Y,R26
000936 931a      	ST   -Y,R17
000937 9af1      	SBI  0x1E,1
000938 e0e7      	LDI  R30,LOW(7)
000939 93e0 07c8 	STS  _twi_result,R30
00093b e0e0      	LDI  R30,LOW(0)
00093c 93e0 07d1 	STS  _twi_slave_rx_handler_G101,R30
00093e 93e0 07d2 	STS  _twi_slave_rx_handler_G101+1,R30
000940 93e0 07d3 	STS  _twi_slave_tx_handler_G101,R30
000942 93e0 07d4 	STS  _twi_slave_tx_handler_G101+1,R30
000944 9a44      	SBI  0x8,4
000945 9a45      	SBI  0x8,5
000946 93e0 00bc 	STS  188,R30
000948 91e0 00b9 	LDS  R30,185
00094a 7fec      	ANDI R30,LOW(0xFC)
00094b 93e0 00b9 	STS  185,R30
00094d 81e9      	LDD  R30,Y+1
00094e 81fa      	LDD  R31,Y+1+1
00094f eaa0      	LDI  R26,LOW(4000)
000950 e0bf      	LDI  R27,HIGH(4000)
000951 940e 0d61 	CALL __DIVW21U
000953 2f1e      	MOV  R17,R30
000954 3018      	CPI  R17,8
000955 f008      	BRLO _0x2020006
000956 5018      	SUBI R17,LOW(8)
                 _0x2020006:
000957 9310 00b8 	STS  184,R17
000959 91e0 00bc 	LDS  R30,188
00095b 78e0      	ANDI R30,LOW(0x80)
00095c 64e5      	ORI  R30,LOW(0x45)
00095d 93e0 00bc 	STS  188,R30
00095f 8118      	LDD  R17,Y+0
000960 9623      	ADIW R28,3
000961 9508      	RET
                 ; .FEND
                 _twi_master_trans:
                 ; .FSTART _twi_master_trans
000962 93aa      	ST   -Y,R26
000963 9724      	SBIW R28,4
000964 9bf1      	SBIS 0x1E,1
000965 c063      	RJMP _0x2020007
000966 85ea      	LDD  R30,Y+10
000967 0fee      	LSL  R30
000968 93e0 07c9 	STS  _slave_address_G101,R30
00096a 85e8      	LDD  R30,Y+8
00096b 85f9      	LDD  R31,Y+8+1
00096c 93e0 07ca 	STS  _twi_tx_buffer_G101,R30
00096e 93f0 07cb 	STS  _twi_tx_buffer_G101+1,R31
000970 e0e0      	LDI  R30,LOW(0)
000971 93e0 07c6 	STS  _twi_tx_index,R30
000973 81ef      	LDD  R30,Y+7
000974 93e0 07cc 	STS  _bytes_to_tx_G101,R30
000976 81ed      	LDD  R30,Y+5
000977 81fe      	LDD  R31,Y+5+1
000978 93e0 07cd 	STS  _twi_rx_buffer_G101,R30
00097a 93f0 07ce 	STS  _twi_rx_buffer_G101+1,R31
00097c e0e0      	LDI  R30,LOW(0)
00097d 93e0 07c7 	STS  _twi_rx_index,R30
00097f 81ec      	LDD  R30,Y+4
000980 93e0 07cf 	STS  _bytes_to_rx_G101,R30
000982 e0e6      	LDI  R30,LOW(6)
000983 93e0 07c8 	STS  _twi_result,R30
000985 9478      	sei
000986 81ef      	LDD  R30,Y+7
000987 30e0      	CPI  R30,0
000988 f081      	BREQ _0x2020008
000989 85e8      	LDD  R30,Y+8
00098a 85f9      	LDD  R31,Y+8+1
00098b 9730      	SBIW R30,0
00098c f409      	BRNE _0x2020009
00098d c03b      	RJMP _0x2060002
                 _0x2020009:
00098e 81ec      	LDD  R30,Y+4
00098f 30e0      	CPI  R30,0
000990 f021      	BREQ _0x202000B
000991 81ad      	LDD  R26,Y+5
000992 81be      	LDD  R27,Y+5+1
000993 9710      	SBIW R26,0
000994 f009      	BREQ _0x202000C
                 _0x202000B:
000995 c001      	RJMP _0x202000A
                 _0x202000C:
000996 c032      	RJMP _0x2060002
                 _0x202000A:
000997 9af0      	SBI  0x1E,0
000998 c00d      	RJMP _0x202000F
                 _0x2020008:
000999 81ec      	LDD  R30,Y+4
00099a 30e0      	CPI  R30,0
00099b f139      	BREQ _0x2020010
00099c 81ed      	LDD  R30,Y+5
00099d 81fe      	LDD  R31,Y+5+1
00099e 9730      	SBIW R30,0
00099f f149      	BREQ _0x2060002
0009a0 91e0 07c9 	LDS  R30,_slave_address_G101
0009a2 60e1      	ORI  R30,1
0009a3 93e0 07c9 	STS  _slave_address_G101,R30
0009a5 98f0      	CBI  0x1E,0
                 _0x202000F:
0009a6 98f1      	CBI  0x1E,1
0009a7 91e0 00bc 	LDS  R30,188
0009a9 70ef      	ANDI R30,LOW(0xF)
0009aa 6ae0      	ORI  R30,LOW(0xA0)
0009ab 93e0 00bc 	STS  188,R30
                +
0009ad e2e0     +LDI R30 , LOW ( 0x7A120 )
0009ae eaf1     +LDI R31 , HIGH ( 0x7A120 )
0009af e067     +LDI R22 , BYTE3 ( 0x7A120 )
0009b0 e070     +LDI R23 , BYTE4 ( 0x7A120 )
                 	__GETD1N 0x7A120
0009b1 940e 0d8c 	CALL __PUTD1S0
                 _0x2020016:
0009b3 99f1      	SBIC 0x1E,1
0009b4 c00e      	RJMP _0x2020018
0009b5 940e 0d87 	CALL __GETD1S0
0009b7 9731      	SBIW R30,1
0009b8 4060      	SBCI R22,0
0009b9 4070      	SBCI R23,0
0009ba 940e 0d8c 	CALL __PUTD1S0
0009bc f429      	BRNE _0x2020019
0009bd e0e5      	LDI  R30,LOW(5)
0009be 93e0 07c8 	STS  _twi_result,R30
0009c0 9af1      	SBI  0x1E,1
0009c1 c007      	RJMP _0x2060002
                 _0x2020019:
0009c2 cff0      	RJMP _0x2020016
                 _0x2020018:
                 _0x2020010:
0009c3 91a0 07c8 	LDS  R26,_twi_result
0009c5 e0e0      	LDI  R30,LOW(0)
0009c6 940e 0d43 	CALL __EQB12
0009c8 c001      	RJMP _0x2060001
                 _0x2020007:
                 _0x2060002:
0009c9 e0e0      	LDI  R30,LOW(0)
                 _0x2060001:
0009ca 962b      	ADIW R28,11
0009cb 9508      	RET
                 ; .FEND
                 _twi_int_handler:
                 ; .FSTART _twi_int_handler
0009cc 920a      	ST   -Y,R0
0009cd 921a      	ST   -Y,R1
0009ce 92fa      	ST   -Y,R15
0009cf 936a      	ST   -Y,R22
0009d0 937a      	ST   -Y,R23
0009d1 938a      	ST   -Y,R24
0009d2 939a      	ST   -Y,R25
0009d3 93aa      	ST   -Y,R26
0009d4 93ba      	ST   -Y,R27
0009d5 93ea      	ST   -Y,R30
0009d6 93fa      	ST   -Y,R31
0009d7 b7ef      	IN   R30,SREG
0009d8 93ea      	ST   -Y,R30
0009d9 940e 0d95 	CALL __SAVELOCR6
0009db 9110 07c7 	LDS  R17,_twi_rx_index
0009dd 9100 07c6 	LDS  R16,_twi_tx_index
0009df 9130 07cc 	LDS  R19,_bytes_to_tx_G101
0009e1 9120 07c8 	LDS  R18,_twi_result
0009e3 2fe1      	MOV  R30,R17
0009e4 91a0 07cd 	LDS  R26,_twi_rx_buffer_G101
0009e6 91b0 07ce 	LDS  R27,_twi_rx_buffer_G101+1
0009e8 e0f0      	LDI  R31,0
0009e9 0fea      	ADD  R30,R26
0009ea 1ffb      	ADC  R31,R27
0009eb 01af      	MOVW R20,R30
0009ec 91e0 00b9 	LDS  R30,185
0009ee 7fe8      	ANDI R30,LOW(0xF8)
0009ef 30e8      	CPI  R30,LOW(0x8)
0009f0 f411      	BRNE _0x2020023
0009f1 e020      	LDI  R18,LOW(0)
0009f2 c002      	RJMP _0x2020024
                 _0x2020023:
0009f3 31e0      	CPI  R30,LOW(0x10)
0009f4 f419      	BRNE _0x2020025
                 _0x2020024:
0009f5 91e0 07c9 	LDS  R30,_slave_address_G101
0009f7 c010      	RJMP _0x2020080
                 _0x2020025:
0009f8 31e8      	CPI  R30,LOW(0x18)
0009f9 f011      	BREQ _0x2020029
0009fa 32e8      	CPI  R30,LOW(0x28)
0009fb f541      	BRNE _0x202002A
                 _0x2020029:
0009fc 1703      	CP   R16,R19
0009fd f498      	BRSH _0x202002B
0009fe 2fe0      	MOV  R30,R16
0009ff 5f0f      	SUBI R16,-1
000a00 91a0 07ca 	LDS  R26,_twi_tx_buffer_G101
000a02 91b0 07cb 	LDS  R27,_twi_tx_buffer_G101+1
000a04 e0f0      	LDI  R31,0
000a05 0fae      	ADD  R26,R30
000a06 1fbf      	ADC  R27,R31
000a07 91ec      	LD   R30,X
                 _0x2020080:
000a08 93e0 00bb 	STS  187,R30
000a0a 91e0 00bc 	LDS  R30,188
000a0c 70ef      	ANDI R30,LOW(0xF)
000a0d 68e0      	ORI  R30,0x80
000a0e 93e0 00bc 	STS  188,R30
000a10 c012      	RJMP _0x202002C
                 _0x202002B:
000a11 91e0 07cf 	LDS  R30,_bytes_to_rx_G101
000a13 171e      	CP   R17,R30
000a14 f468      	BRSH _0x202002D
000a15 91e0 07c9 	LDS  R30,_slave_address_G101
000a17 60e1      	ORI  R30,1
000a18 93e0 07c9 	STS  _slave_address_G101,R30
000a1a 98f0      	CBI  0x1E,0
000a1b 91e0 00bc 	LDS  R30,188
000a1d 70ef      	ANDI R30,LOW(0xF)
000a1e 6ae0      	ORI  R30,LOW(0xA0)
000a1f 93e0 00bc 	STS  188,R30
000a21 c10d      	RJMP _0x2020022
                 _0x202002D:
000a22 c038      	RJMP _0x2020030
                 _0x202002C:
000a23 c10b      	RJMP _0x2020022
                 _0x202002A:
000a24 35e0      	CPI  R30,LOW(0x50)
000a25 f431      	BRNE _0x2020031
000a26 91e0 00bb 	LDS  R30,187
000a28 01da      	MOVW R26,R20
000a29 93ec      	ST   X,R30
000a2a 5f1f      	SUBI R17,-LOW(1)
000a2b c002      	RJMP _0x2020032
                 _0x2020031:
000a2c 34e0      	CPI  R30,LOW(0x40)
000a2d f489      	BRNE _0x2020033
                 _0x2020032:
000a2e 91e0 07cf 	LDS  R30,_bytes_to_rx_G101
000a30 50e1      	SUBI R30,LOW(1)
000a31 171e      	CP   R17,R30
000a32 f028      	BRLO _0x2020034
000a33 91e0 00bc 	LDS  R30,188
000a35 70ef      	ANDI R30,LOW(0xF)
000a36 68e0      	ORI  R30,0x80
000a37 c004      	RJMP _0x2020081
                 _0x2020034:
000a38 91e0 00bc 	LDS  R30,188
000a3a 70ef      	ANDI R30,LOW(0xF)
000a3b 6ce0      	ORI  R30,LOW(0xC0)
                 _0x2020081:
000a3c 93e0 00bc 	STS  188,R30
000a3e c0f0      	RJMP _0x2020022
                 _0x2020033:
000a3f 35e8      	CPI  R30,LOW(0x58)
000a40 f431      	BRNE _0x2020036
000a41 91e0 00bb 	LDS  R30,187
000a43 01da      	MOVW R26,R20
000a44 93ec      	ST   X,R30
000a45 5f1f      	SUBI R17,-LOW(1)
000a46 c002      	RJMP _0x2020037
                 _0x2020036:
000a47 32e0      	CPI  R30,LOW(0x20)
000a48 f409      	BRNE _0x2020038
                 _0x2020037:
000a49 c002      	RJMP _0x2020039
                 _0x2020038:
000a4a 33e0      	CPI  R30,LOW(0x30)
000a4b f409      	BRNE _0x202003A
                 _0x2020039:
000a4c c002      	RJMP _0x202003B
                 _0x202003A:
000a4d 34e8      	CPI  R30,LOW(0x48)
000a4e f469      	BRNE _0x202003C
                 _0x202003B:
000a4f 3020      	CPI  R18,0
000a50 f451      	BRNE _0x202003D
000a51 9bf0      	SBIS 0x1E,0
000a52 c003      	RJMP _0x202003E
000a53 1703      	CP   R16,R19
000a54 f028      	BRLO _0x2020040
000a55 c005      	RJMP _0x2020041
                 _0x202003E:
000a56 91e0 07cf 	LDS  R30,_bytes_to_rx_G101
000a58 171e      	CP   R17,R30
000a59 f408      	BRSH _0x2020042
                 _0x2020040:
000a5a e024      	LDI  R18,LOW(4)
                 _0x2020042:
                 _0x2020041:
                 _0x202003D:
                 _0x2020030:
000a5b c0cc      	RJMP _0x2020082
                 _0x202003C:
000a5c 33e8      	CPI  R30,LOW(0x38)
000a5d f431      	BRNE _0x2020045
000a5e e022      	LDI  R18,LOW(2)
000a5f 91e0 00bc 	LDS  R30,188
000a61 70ef      	ANDI R30,LOW(0xF)
000a62 68e0      	ORI  R30,0x80
000a63 c0c8      	RJMP _0x2020083
                 _0x2020045:
000a64 36e8      	CPI  R30,LOW(0x68)
000a65 f011      	BREQ _0x2020048
000a66 37e8      	CPI  R30,LOW(0x78)
000a67 f411      	BRNE _0x2020049
                 _0x2020048:
000a68 e022      	LDI  R18,LOW(2)
000a69 c005      	RJMP _0x202004A
                 _0x2020049:
000a6a 36e0      	CPI  R30,LOW(0x60)
000a6b f011      	BREQ _0x202004D
000a6c 37e0      	CPI  R30,LOW(0x70)
000a6d f4a1      	BRNE _0x202004E
                 _0x202004D:
000a6e e020      	LDI  R18,LOW(0)
                 _0x202004A:
000a6f e010      	LDI  R17,LOW(0)
000a70 98f0      	CBI  0x1E,0
000a71 91e0 07d0 	LDS  R30,_twi_rx_buffer_size_G101
000a73 30e0      	CPI  R30,0
000a74 f431      	BRNE _0x2020051
000a75 e021      	LDI  R18,LOW(1)
000a76 91e0 00bc 	LDS  R30,188
000a78 70ef      	ANDI R30,LOW(0xF)
000a79 68e0      	ORI  R30,0x80
000a7a c004      	RJMP _0x2020084
                 _0x2020051:
000a7b 91e0 00bc 	LDS  R30,188
000a7d 70ef      	ANDI R30,LOW(0xF)
000a7e 6ce0      	ORI  R30,LOW(0xC0)
                 _0x2020084:
000a7f 93e0 00bc 	STS  188,R30
000a81 c0ad      	RJMP _0x2020022
                 _0x202004E:
000a82 38e0      	CPI  R30,LOW(0x80)
000a83 f011      	BREQ _0x2020054
000a84 39e0      	CPI  R30,LOW(0x90)
000a85 f539      	BRNE _0x2020055
                 _0x2020054:
000a86 9bf0      	SBIS 0x1E,0
000a87 c002      	RJMP _0x2020056
000a88 e021      	LDI  R18,LOW(1)
000a89 c09e      	RJMP _0x2020057
                 _0x2020056:
000a8a 91e0 00bb 	LDS  R30,187
000a8c 01da      	MOVW R26,R20
000a8d 93ec      	ST   X,R30
000a8e 5f1f      	SUBI R17,-LOW(1)
000a8f 91e0 07d0 	LDS  R30,_twi_rx_buffer_size_G101
000a91 171e      	CP   R17,R30
000a92 f4c0      	BRSH _0x2020058
000a93 91e0 07d1 	LDS  R30,_twi_slave_rx_handler_G101
000a95 91f0 07d2 	LDS  R31,_twi_slave_rx_handler_G101+1
000a97 9730      	SBIW R30,0
000a98 f411      	BRNE _0x2020059
000a99 e026      	LDI  R18,LOW(6)
000a9a c08d      	RJMP _0x2020057
                 _0x2020059:
000a9b e0a0      	LDI  R26,LOW(0)
                +
000a9c 91e0 07d1+LDS R30 , _twi_slave_rx_handler_G101 + ( 0 )
000a9e 91f0 07d2+LDS R31 , _twi_slave_rx_handler_G101 + ( 0 ) + 1
000aa0 9509     +ICALL
                 	__CALL1MN _twi_slave_rx_handler_G101,0
000aa1 30e0      	CPI  R30,0
000aa2 f039      	BREQ _0x202005A
000aa3 91e0 00bc 	LDS  R30,188
000aa5 70ef      	ANDI R30,LOW(0xF)
000aa6 6ce0      	ORI  R30,LOW(0xC0)
000aa7 93e0 00bc 	STS  188,R30
000aa9 c085      	RJMP _0x2020022
                 _0x202005A:
000aaa c001      	RJMP _0x202005B
                 _0x2020058:
000aab 9af0      	SBI  0x1E,0
                 _0x202005B:
000aac c002      	RJMP _0x202005E
                 _0x2020055:
000aad 38e8      	CPI  R30,LOW(0x88)
000aae f409      	BRNE _0x202005F
                 _0x202005E:
000aaf c002      	RJMP _0x2020060
                 _0x202005F:
000ab0 39e8      	CPI  R30,LOW(0x98)
000ab1 f439      	BRNE _0x2020061
                 _0x2020060:
000ab2 91e0 00bc 	LDS  R30,188
000ab4 70ef      	ANDI R30,LOW(0xF)
000ab5 68e0      	ORI  R30,0x80
000ab6 93e0 00bc 	STS  188,R30
000ab8 c076      	RJMP _0x2020022
                 _0x2020061:
000ab9 3ae0      	CPI  R30,LOW(0xA0)
000aba f4b1      	BRNE _0x2020062
000abb 91e0 00bc 	LDS  R30,188
000abd 70ef      	ANDI R30,LOW(0xF)
000abe 6ce0      	ORI  R30,LOW(0xC0)
000abf 93e0 00bc 	STS  188,R30
000ac1 9af1      	SBI  0x1E,1
000ac2 91e0 07d1 	LDS  R30,_twi_slave_rx_handler_G101
000ac4 91f0 07d2 	LDS  R31,_twi_slave_rx_handler_G101+1
000ac6 9730      	SBIW R30,0
000ac7 f039      	BREQ _0x2020065
000ac8 e0a1      	LDI  R26,LOW(1)
                +
000ac9 91e0 07d1+LDS R30 , _twi_slave_rx_handler_G101 + ( 0 )
000acb 91f0 07d2+LDS R31 , _twi_slave_rx_handler_G101 + ( 0 ) + 1
000acd 9509     +ICALL
                 	__CALL1MN _twi_slave_rx_handler_G101,0
000ace c001      	RJMP _0x2020066
                 _0x2020065:
000acf e026      	LDI  R18,LOW(6)
                 _0x2020066:
000ad0 c05e      	RJMP _0x2020022
                 _0x2020062:
000ad1 3be0      	CPI  R30,LOW(0xB0)
000ad2 f411      	BRNE _0x2020067
000ad3 e022      	LDI  R18,LOW(2)
000ad4 c002      	RJMP _0x2020068
                 _0x2020067:
000ad5 3ae8      	CPI  R30,LOW(0xA8)
000ad6 f4b1      	BRNE _0x2020069
                 _0x2020068:
000ad7 91e0 07d3 	LDS  R30,_twi_slave_tx_handler_G101
000ad9 91f0 07d4 	LDS  R31,_twi_slave_tx_handler_G101+1
000adb 9730      	SBIW R30,0
000adc f059      	BREQ _0x202006A
000add e0a0      	LDI  R26,LOW(0)
                +
000ade 91e0 07d3+LDS R30 , _twi_slave_tx_handler_G101 + ( 0 )
000ae0 91f0 07d4+LDS R31 , _twi_slave_tx_handler_G101 + ( 0 ) + 1
000ae2 9509     +ICALL
                 	__CALL1MN _twi_slave_tx_handler_G101,0
000ae3 2f3e      	MOV  R19,R30
000ae4 30e0      	CPI  R30,0
000ae5 f011      	BREQ _0x202006C
000ae6 e020      	LDI  R18,LOW(0)
000ae7 c002      	RJMP _0x202006D
                 _0x202006A:
                 _0x202006C:
000ae8 e026      	LDI  R18,LOW(6)
000ae9 c03e      	RJMP _0x2020057
                 _0x202006D:
000aea e000      	LDI  R16,LOW(0)
000aeb 98f0      	CBI  0x1E,0
000aec c002      	RJMP _0x2020070
                 _0x2020069:
000aed 3be8      	CPI  R30,LOW(0xB8)
000aee f4f9      	BRNE _0x2020071
                 _0x2020070:
000aef 9bf0      	SBIS 0x1E,0
000af0 c002      	RJMP _0x2020072
000af1 e021      	LDI  R18,LOW(1)
000af2 c035      	RJMP _0x2020057
                 _0x2020072:
000af3 2fe0      	MOV  R30,R16
000af4 5f0f      	SUBI R16,-1
000af5 91a0 07ca 	LDS  R26,_twi_tx_buffer_G101
000af7 91b0 07cb 	LDS  R27,_twi_tx_buffer_G101+1
000af9 e0f0      	LDI  R31,0
000afa 0fae      	ADD  R26,R30
000afb 1fbf      	ADC  R27,R31
000afc 91ec      	LD   R30,X
000afd 93e0 00bb 	STS  187,R30
000aff 1703      	CP   R16,R19
000b00 f428      	BRSH _0x2020073
000b01 91e0 00bc 	LDS  R30,188
000b03 70ef      	ANDI R30,LOW(0xF)
000b04 6ce0      	ORI  R30,LOW(0xC0)
000b05 c005      	RJMP _0x2020085
                 _0x2020073:
000b06 9af0      	SBI  0x1E,0
000b07 91e0 00bc 	LDS  R30,188
000b09 70ef      	ANDI R30,LOW(0xF)
000b0a 68e0      	ORI  R30,0x80
                 _0x2020085:
000b0b 93e0 00bc 	STS  188,R30
000b0d c021      	RJMP _0x2020022
                 _0x2020071:
000b0e 3ce0      	CPI  R30,LOW(0xC0)
000b0f f011      	BREQ _0x2020078
000b10 3ce8      	CPI  R30,LOW(0xC8)
000b11 f499      	BRNE _0x2020079
                 _0x2020078:
000b12 91e0 00bc 	LDS  R30,188
000b14 70ef      	ANDI R30,LOW(0xF)
000b15 6ce0      	ORI  R30,LOW(0xC0)
000b16 93e0 00bc 	STS  188,R30
000b18 91e0 07d3 	LDS  R30,_twi_slave_tx_handler_G101
000b1a 91f0 07d4 	LDS  R31,_twi_slave_tx_handler_G101+1
000b1c 9730      	SBIW R30,0
000b1d f031      	BREQ _0x202007A
000b1e e0a1      	LDI  R26,LOW(1)
                +
000b1f 91e0 07d3+LDS R30 , _twi_slave_tx_handler_G101 + ( 0 )
000b21 91f0 07d4+LDS R31 , _twi_slave_tx_handler_G101 + ( 0 ) + 1
000b23 9509     +ICALL
                 	__CALL1MN _twi_slave_tx_handler_G101,0
                 _0x202007A:
000b24 c009      	RJMP _0x2020043
                 _0x2020079:
000b25 30e0      	CPI  R30,0
000b26 f441      	BRNE _0x2020022
000b27 e023      	LDI  R18,LOW(3)
                 _0x2020057:
                 _0x2020082:
000b28 91e0 00bc 	LDS  R30,188
000b2a 70ef      	ANDI R30,LOW(0xF)
000b2b 6de0      	ORI  R30,LOW(0xD0)
                 _0x2020083:
000b2c 93e0 00bc 	STS  188,R30
                 _0x2020043:
000b2e 9af1      	SBI  0x1E,1
                 _0x2020022:
000b2f 9310 07c7 	STS  _twi_rx_index,R17
000b31 9300 07c6 	STS  _twi_tx_index,R16
000b33 9320 07c8 	STS  _twi_result,R18
000b35 9330 07cc 	STS  _bytes_to_tx_G101,R19
000b37 940e 0d9c 	CALL __LOADLOCR6
000b39 9626      	ADIW R28,6
000b3a 91e9      	LD   R30,Y+
000b3b bfef      	OUT  SREG,R30
000b3c 91f9      	LD   R31,Y+
000b3d 91e9      	LD   R30,Y+
000b3e 91b9      	LD   R27,Y+
000b3f 91a9      	LD   R26,Y+
000b40 9199      	LD   R25,Y+
000b41 9189      	LD   R24,Y+
000b42 9179      	LD   R23,Y+
000b43 9169      	LD   R22,Y+
000b44 90f9      	LD   R15,Y+
000b45 9019      	LD   R1,Y+
000b46 9009      	LD   R0,Y+
000b47 9518      	RETI
                 ; .FEND
                 
                 	.CSEG
                 
                 	.DSEG
                 _buffer:
000306           	.BYTE 0x400
                 _y:
000706           	.BYTE 0x2
                 _x0:
000708           	.BYTE 0x2
                 _y0:
00070a           	.BYTE 0x2
                 _maxr:
00070c           	.BYTE 0x2
                 _maxl:
00070e           	.BYTE 0x2
                 _kof:
000710           	.BYTE 0x2
                 _rx_data:
000712           	.BYTE 0x1
                 _bufer:
000713           	.BYTE 0x81
                 _tx_data0:
000794           	.BYTE 0x32
                 _twi_tx_index:
0007c6           	.BYTE 0x1
                 _twi_rx_index:
0007c7           	.BYTE 0x1
                 _twi_result:
0007c8           	.BYTE 0x1
                 _slave_address_G101:
0007c9           	.BYTE 0x1
                 _twi_tx_buffer_G101:
0007ca           	.BYTE 0x2
                 _bytes_to_tx_G101:
0007cc           	.BYTE 0x1
                 _twi_rx_buffer_G101:
0007cd           	.BYTE 0x2
                 _bytes_to_rx_G101:
0007cf           	.BYTE 0x1
                 _twi_rx_buffer_size_G101:
0007d0           	.BYTE 0x1
                 _twi_slave_rx_handler_G101:
0007d1           	.BYTE 0x2
                 _twi_slave_tx_handler_G101:
0007d3           	.BYTE 0x2
                 
                 	.CSEG
                 ;OPTIMIZER ADDED SUBROUTINE, CALLED 3 TIMES, CODE SIZE REDUCTION:1 WORDS
                 SUBOPT_0x0:
000b48 931a      	ST   -Y,R17
000b49 930a      	ST   -Y,R16
                +
000b4a e000     +LDI R16 , LOW ( 0 )
000b4b e010     +LDI R17 , HIGH ( 0 )
                 	__GETWRN 16,17,0
000b4c 9508      	RET
                 
                 ;OPTIMIZER ADDED SUBROUTINE, CALLED 3 TIMES, CODE SIZE REDUCTION:39 WORDS
                 SUBOPT_0x1:
000b4d 81aa      	LDD  R26,Y+2
000b4e 81bb      	LDD  R27,Y+2+1
000b4f e0e8      	LDI  R30,LOW(8)
000b50 e0f0      	LDI  R31,HIGH(8)
000b51 940e 0d74 	CALL __DIVW21
000b53 940e 0d3c 	CALL __LSLW3
000b55 940e 0d3a 	CALL __LSLW4
000b57 81ac      	LDD  R26,Y+4
000b58 81bd      	LDD  R27,Y+4+1
000b59 0fea      	ADD  R30,R26
000b5a 1ffb      	ADC  R31,R27
000b5b 5fea      	SUBI R30,LOW(-_buffer)
000b5c 4ffc      	SBCI R31,HIGH(-_buffer)
000b5d 01bf      	MOVW R22,R30
000b5e 8010      	LD   R1,Z
000b5f 81ea      	LDD  R30,Y+2
000b60 70e7      	ANDI R30,LOW(0x7)
000b61 e0a1      	LDI  R26,LOW(1)
000b62 940e 0d32 	CALL __LSLB12
000b64 9508      	RET
                 
                 ;OPTIMIZER ADDED SUBROUTINE, CALLED 2 TIMES, CODE SIZE REDUCTION:29 WORDS
                 SUBOPT_0x2:
000b65 89a8      	LDD  R26,Y+16
000b66 89b9      	LDD  R27,Y+16+1
000b67 85ec      	LDD  R30,Y+12
000b68 85fd      	LDD  R31,Y+12+1
000b69 1bea      	SUB  R30,R26
000b6a 0bfb      	SBC  R31,R27
000b6b 01df      	MOVW R26,R30
000b6c 01fa      	MOVW R30,R20
000b6d 940e 0d5c 	CALL __MULW12
000b6f 018f      	MOVW R16,R30
000b70 85ae      	LDD  R26,Y+14
000b71 85bf      	LDD  R27,Y+14+1
000b72 85ea      	LDD  R30,Y+10
000b73 85fb      	LDD  R31,Y+10+1
000b74 1bea      	SUB  R30,R26
000b75 0bfb      	SBC  R31,R27
000b76 81ae      	LDD  R26,Y+6
000b77 81bf      	LDD  R27,Y+6+1
000b78 940e 0d5c 	CALL __MULW12
000b7a 019f      	MOVW R18,R30
000b7b 89e8      	LDD  R30,Y+16
000b7c 89f9      	LDD  R31,Y+16+1
000b7d 93fa      	ST   -Y,R31
000b7e 93ea      	ST   -Y,R30
000b7f 89e8      	LDD  R30,Y+16
000b80 89f9      	LDD  R31,Y+16+1
000b81 93fa      	ST   -Y,R31
000b82 93ea      	ST   -Y,R30
000b83 85ac      	LDD  R26,Y+12
000b84 85bd      	LDD  R27,Y+12+1
000b85 940c 04e5 	JMP  _drawPixel
                 
                 ;OPTIMIZER ADDED SUBROUTINE, CALLED 3 TIMES, CODE SIZE REDUCTION:5 WORDS
                 SUBOPT_0x3:
000b87 e3ec      	LDI  R30,LOW(60)
000b88 93ea      	ST   -Y,R30
000b89 e1e3      	LDI  R30,LOW(_bufer)
000b8a e0f7      	LDI  R31,HIGH(_bufer)
000b8b 93fa      	ST   -Y,R31
000b8c 93ea      	ST   -Y,R30
000b8d 9508      	RET
                 
                 ;OPTIMIZER ADDED SUBROUTINE, CALLED 4 TIMES, CODE SIZE REDUCTION:15 WORDS
                 SUBOPT_0x4:
000b8e 93ea      	ST   -Y,R30
000b8f e1e2      	LDI  R30,LOW(_rx_data)
000b90 e0f7      	LDI  R31,HIGH(_rx_data)
000b91 93fa      	ST   -Y,R31
000b92 93ea      	ST   -Y,R30
000b93 e0a0      	LDI  R26,LOW(0)
000b94 940c 0962 	JMP  _twi_master_trans
                 
                 ;OPTIMIZER ADDED SUBROUTINE, CALLED 3 TIMES, CODE SIZE REDUCTION:3 WORDS
                 SUBOPT_0x5:
000b96 93e0 00b3 	STS  179,R30
000b98 e0e0      	LDI  R30,LOW(0)
000b99 93e0 00b4 	STS  180,R30
000b9b 9508      	RET
                 
                 ;OPTIMIZER ADDED SUBROUTINE, CALLED 2 TIMES, CODE SIZE REDUCTION:3 WORDS
                 SUBOPT_0x6:
000b9c e0e0      	LDI  R30,LOW(0)
000b9d 93e0 00b3 	STS  179,R30
000b9f 2de5      	MOV  R30,R5
000ba0 0fee      	LSL  R30
000ba1 0fee      	LSL  R30
000ba2 93e0 00b4 	STS  180,R30
000ba4 9508      	RET
                 
                 ;OPTIMIZER ADDED SUBROUTINE, CALLED 3 TIMES, CODE SIZE REDUCTION:3 WORDS
                 SUBOPT_0x7:
000ba5 e0a0      	LDI  R26,LOW(0)
000ba6 940e 0608 	CALL _read_adc
                +
000ba8 2ede     +MOV R13 , R30
000ba9 2eef     +MOV R14 , R31
                 	__PUTW1R 13,14
000baa 9508      	RET
                 
                 ;OPTIMIZER ADDED SUBROUTINE, CALLED 2 TIMES, CODE SIZE REDUCTION:2 WORDS
                 SUBOPT_0x8:
000bab e0a1      	LDI  R26,LOW(1)
000bac 940e 0608 	CALL _read_adc
000bae 93e0 0706 	STS  _y,R30
000bb0 93f0 0707 	STS  _y+1,R31
000bb2 9508      	RET
                 
                 ;OPTIMIZER ADDED SUBROUTINE, CALLED 12 TIMES, CODE SIZE REDUCTION:19 WORDS
                 SUBOPT_0x9:
000bb3 91a0 0706 	LDS  R26,_y
000bb5 91b0 0707 	LDS  R27,_y+1
000bb7 9508      	RET
                 
                 ;OPTIMIZER ADDED SUBROUTINE, CALLED 2 TIMES, CODE SIZE REDUCTION:3 WORDS
                 SUBOPT_0xA:
                +
000bb8 1ada     +SUB R13 , R26
000bb9 0aeb     +SBC R14 , R27
                 	__SUBWRR 13,14,26,27
000bba 91e0 070e 	LDS  R30,_maxl
000bbc 91f0 070f 	LDS  R31,_maxl+1
000bbe 16de      	CP   R13,R30
000bbf 06ef      	CPC  R14,R31
000bc0 9508      	RET
                 
                 ;OPTIMIZER ADDED SUBROUTINE, CALLED 4 TIMES, CODE SIZE REDUCTION:3 WORDS
                 SUBOPT_0xB:
                +
000bc1 92d0 070e+STS _maxl + ( 0 ) , R13
000bc3 92e0 070f+STS _maxl + ( 0 ) + 1 , R14
                 	__PUTWMRN _maxl,0,13,14
000bc5 9508      	RET
                 
                 ;OPTIMIZER ADDED SUBROUTINE, CALLED 4 TIMES, CODE SIZE REDUCTION:9 WORDS
                 SUBOPT_0xC:
000bc6 91e0 070c 	LDS  R30,_maxr
000bc8 91f0 070d 	LDS  R31,_maxr+1
000bca 15ed      	CP   R30,R13
000bcb 05fe      	CPC  R31,R14
000bcc 9508      	RET
                 
                 ;OPTIMIZER ADDED SUBROUTINE, CALLED 4 TIMES, CODE SIZE REDUCTION:3 WORDS
                 SUBOPT_0xD:
                +
000bcd 92d0 070c+STS _maxr + ( 0 ) , R13
000bcf 92e0 070d+STS _maxr + ( 0 ) + 1 , R14
                 	__PUTWMRN _maxr,0,13,14
000bd1 9508      	RET
                 
                 ;OPTIMIZER ADDED SUBROUTINE, CALLED 4 TIMES, CODE SIZE REDUCTION:51 WORDS
                 SUBOPT_0xE:
                +
000bd2 2dad     +MOV R26 , R13
000bd3 2dbe     +MOV R27 , R14
                 	__GETW2R 13,14
000bd4 e1e0      	LDI  R30,LOW(16)
000bd5 e0f0      	LDI  R31,HIGH(16)
000bd6 940e 0d74 	CALL __DIVW21
000bd8 5ce0      	SUBI R30,LOW(-64)
000bd9 4fff      	SBCI R31,HIGH(-64)
                +
000bda 2ede     +MOV R13 , R30
000bdb 2eef     +MOV R14 , R31
                 	__PUTW1R 13,14
000bdc dfd6      	RCALL SUBOPT_0x9
000bdd e1e0      	LDI  R30,LOW(16)
000bde e0f0      	LDI  R31,HIGH(16)
000bdf 940e 0d74 	CALL __DIVW21
000be1 93e0 0706 	STS  _y,R30
000be3 93f0 0707 	STS  _y+1,R31
000be5 9508      	RET
                 
                 ;OPTIMIZER ADDED SUBROUTINE, CALLED 12 TIMES, CODE SIZE REDUCTION:19 WORDS
                 SUBOPT_0xF:
000be6 91e0 0706 	LDS  R30,_y
000be8 91f0 0707 	LDS  R31,_y+1
000bea 9508      	RET
                 
                 ;OPTIMIZER ADDED SUBROUTINE, CALLED 2 TIMES, CODE SIZE REDUCTION:32 WORDS
                 SUBOPT_0x10:
000beb 96b0      	ADIW R30,32
000bec 93e0 0706 	STS  _y,R30
000bee 93f0 0707 	STS  _y+1,R31
000bf0 91e0 0708 	LDS  R30,_x0
000bf2 91f0 0709 	LDS  R31,_x0+1
000bf4 93fa      	ST   -Y,R31
000bf5 93ea      	ST   -Y,R30
000bf6 91e0 070a 	LDS  R30,_y0
000bf8 91f0 070b 	LDS  R31,_y0+1
000bfa 93fa      	ST   -Y,R31
000bfb 93ea      	ST   -Y,R30
000bfc 92ea      	ST   -Y,R14
000bfd 92da      	ST   -Y,R13
000bfe dfe7      	RCALL SUBOPT_0xF
000bff 93fa      	ST   -Y,R31
000c00 93ea      	ST   -Y,R30
000c01 e0a1      	LDI  R26,LOW(1)
000c02 e0b0      	LDI  R27,0
000c03 940e 0577 	CALL _drawLine
                +
000c05 92d0 0708+STS _x0 + ( 0 ) , R13
000c07 92e0 0709+STS _x0 + ( 0 ) + 1 , R14
                 	__PUTWMRN _x0,0,13,14
000c09 dfdc      	RCALL SUBOPT_0xF
000c0a 93e0 070a 	STS  _y0,R30
000c0c 93f0 070b 	STS  _y0+1,R31
000c0e 9508      	RET
                 
                 ;OPTIMIZER ADDED SUBROUTINE, CALLED 2 TIMES, CODE SIZE REDUCTION:2 WORDS
                 SUBOPT_0x11:
000c0f e0a0      	LDI  R26,LOW(0)
000c10 940e 0608 	CALL _read_adc
000c12 93e0 0706 	STS  _y,R30
000c14 93f0 0707 	STS  _y+1,R31
000c16 9508      	RET
                 
                 ;OPTIMIZER ADDED SUBROUTINE, CALLED 3 TIMES, CODE SIZE REDUCTION:3 WORDS
                 SUBOPT_0x12:
000c17 e0a1      	LDI  R26,LOW(1)
000c18 940e 0608 	CALL _read_adc
                +
000c1a 2ede     +MOV R13 , R30
000c1b 2eef     +MOV R14 , R31
                 	__PUTW1R 13,14
000c1c 9508      	RET
                 
                 ;OPTIMIZER ADDED SUBROUTINE, CALLED 2 TIMES, CODE SIZE REDUCTION:7 WORDS
                 SUBOPT_0x13:
000c1d dfc8      	RCALL SUBOPT_0xF
000c1e 19ed      	SUB  R30,R13
000c1f 09fe      	SBC  R31,R14
                +
000c20 2ede     +MOV R13 , R30
000c21 2eef     +MOV R14 , R31
                 	__PUTW1R 13,14
000c22 91e0 070e 	LDS  R30,_maxl
000c24 91f0 070f 	LDS  R31,_maxl+1
000c26 16de      	CP   R13,R30
000c27 06ef      	CPC  R14,R31
000c28 9508      	RET
                 
                 ;OPTIMIZER ADDED SUBROUTINE, CALLED 2 TIMES, CODE SIZE REDUCTION:37 WORDS
                 SUBOPT_0x14:
000c29 df89      	RCALL SUBOPT_0x9
000c2a e2e0      	LDI  R30,LOW(32)
000c2b e0f0      	LDI  R31,HIGH(32)
000c2c 1bea      	SUB  R30,R26
000c2d 0bfb      	SBC  R31,R27
000c2e 93e0 0706 	STS  _y,R30
000c30 93f0 0707 	STS  _y+1,R31
000c32 91e0 0708 	LDS  R30,_x0
000c34 91f0 0709 	LDS  R31,_x0+1
000c36 93fa      	ST   -Y,R31
000c37 93ea      	ST   -Y,R30
000c38 91e0 070a 	LDS  R30,_y0
000c3a 91f0 070b 	LDS  R31,_y0+1
000c3c 93fa      	ST   -Y,R31
000c3d 93ea      	ST   -Y,R30
000c3e 92ea      	ST   -Y,R14
000c3f 92da      	ST   -Y,R13
000c40 dfa5      	RCALL SUBOPT_0xF
000c41 93fa      	ST   -Y,R31
000c42 93ea      	ST   -Y,R30
000c43 e0a1      	LDI  R26,LOW(1)
000c44 e0b0      	LDI  R27,0
000c45 940e 0577 	CALL _drawLine
                +
000c47 92d0 0708+STS _x0 + ( 0 ) , R13
000c49 92e0 0709+STS _x0 + ( 0 ) + 1 , R14
                 	__PUTWMRN _x0,0,13,14
000c4b df9a      	RCALL SUBOPT_0xF
000c4c 93e0 070a 	STS  _y0,R30
000c4e 93f0 070b 	STS  _y0+1,R31
000c50 9508      	RET
                 
                 ;OPTIMIZER ADDED SUBROUTINE, CALLED 2 TIMES, CODE SIZE REDUCTION:15 WORDS
                 SUBOPT_0x15:
000c51 940e 0608 	CALL _read_adc
                +
000c53 2e5e     +MOV R5 , R30
000c54 2e6f     +MOV R6 , R31
                 	__PUTW1R 5,6
                +
000c55 2da5     +MOV R26 , R5
000c56 2db6     +MOV R27 , R6
                 	__GETW2R 5,6
000c57 19ad      	SUB  R26,R13
000c58 09be      	SBC  R27,R14
000c59 e0e4      	LDI  R30,LOW(4)
000c5a e0f0      	LDI  R31,HIGH(4)
000c5b 940e 0d74 	CALL __DIVW21
000c5d 50e0      	SUBI R30,LOW(-256)
000c5e 4fff      	SBCI R31,HIGH(-256)
                +
000c5f 2ede     +MOV R13 , R30
000c60 2eef     +MOV R14 , R31
                 	__PUTW1R 13,14
000c61 e0e0      	LDI  R30,LOW(256)
000c62 e0f1      	LDI  R31,HIGH(256)
000c63 16de      	CP   R13,R30
000c64 06ef      	CPC  R14,R31
000c65 9508      	RET
                 
                 ;OPTIMIZER ADDED SUBROUTINE, CALLED 2 TIMES, CODE SIZE REDUCTION:1 WORDS
                 SUBOPT_0x16:
000c66 e0e0      	LDI  R30,LOW(256)
000c67 e0f1      	LDI  R31,HIGH(256)
000c68 19ed      	SUB  R30,R13
000c69 09fe      	SBC  R31,R14
                +
000c6a 2ede     +MOV R13 , R30
000c6b 2eef     +MOV R14 , R31
                 	__PUTW1R 13,14
000c6c 9508      	RET
                 
                 ;OPTIMIZER ADDED SUBROUTINE, CALLED 10 TIMES, CODE SIZE REDUCTION:33 WORDS
                 SUBOPT_0x17:
000c6d 93fa      	ST   -Y,R31
000c6e 93ea      	ST   -Y,R30
000c6f e0e7      	LDI  R30,LOW(7)
000c70 e0f0      	LDI  R31,HIGH(7)
000c71 93fa      	ST   -Y,R31
000c72 93ea      	ST   -Y,R30
000c73 9508      	RET
                 
                 ;OPTIMIZER ADDED SUBROUTINE, CALLED 3 TIMES, CODE SIZE REDUCTION:1 WORDS
                 SUBOPT_0x18:
000c74 e1e3      	LDI  R30,LOW(19)
000c75 e0f0      	LDI  R31,HIGH(19)
000c76 cff6      	RJMP SUBOPT_0x17
                 
                 ;OPTIMIZER ADDED SUBROUTINE, CALLED 2 TIMES, CODE SIZE REDUCTION:2 WORDS
                 SUBOPT_0x19:
000c77 e4ac      	LDI  R26,LOW(76)
000c78 940e 0528 	CALL _drawChar
000c7a e1e4      	LDI  R30,LOW(20)
000c7b e0f0      	LDI  R31,HIGH(20)
000c7c cff0      	RJMP SUBOPT_0x17
                 
                 ;OPTIMIZER ADDED SUBROUTINE, CALLED 4 TIMES, CODE SIZE REDUCTION:3 WORDS
                 SUBOPT_0x1A:
000c7d e0ea      	LDI  R30,LOW(10)
000c7e e0f0      	LDI  R31,HIGH(10)
000c7f 16de      	CP   R13,R30
000c80 06ef      	CPC  R14,R31
000c81 9508      	RET
                 
                 ;OPTIMIZER ADDED SUBROUTINE, CALLED 4 TIMES, CODE SIZE REDUCTION:39 WORDS
                 SUBOPT_0x1B:
                +
000c82 2dad     +MOV R26 , R13
000c83 2dbe     +MOV R27 , R14
                 	__GETW2R 13,14
000c84 e0ea      	LDI  R30,LOW(10)
000c85 e0f0      	LDI  R31,HIGH(10)
000c86 940e 0d74 	CALL __DIVW21
                +
000c88 2e5e     +MOV R5 , R30
000c89 2e6f     +MOV R6 , R31
                 	__PUTW1R 5,6
000c8a e0aa      	LDI  R26,LOW(10)
000c8b e0b0      	LDI  R27,HIGH(10)
000c8c 940e 0d5c 	CALL __MULW12
                +
000c8e 1ade     +SUB R13 , R30
000c8f 0aef     +SBC R14 , R31
                 	__SUBWRR 13,14,30,31
000c90 9508      	RET
                 
                 ;OPTIMIZER ADDED SUBROUTINE, CALLED 2 TIMES, CODE SIZE REDUCTION:1 WORDS
                 SUBOPT_0x1C:
000c91 e0e7      	LDI  R30,LOW(7)
000c92 e0f0      	LDI  R31,HIGH(7)
000c93 93fa      	ST   -Y,R31
000c94 93ea      	ST   -Y,R30
000c95 2dad      	MOV  R26,R13
000c96 5da0      	SUBI R26,-LOW(48)
000c97 9508      	RET
                 
                 ;OPTIMIZER ADDED SUBROUTINE, CALLED 6 TIMES, CODE SIZE REDUCTION:7 WORDS
                 SUBOPT_0x1D:
000c98 e4e0      	LDI  R30,LOW(64)
000c99 e0f0      	LDI  R31,HIGH(64)
000c9a 93fa      	ST   -Y,R31
000c9b 93ea      	ST   -Y,R30
000c9c 9508      	RET
                 
                 ;OPTIMIZER ADDED SUBROUTINE, CALLED 14 TIMES, CODE SIZE REDUCTION:23 WORDS
                 SUBOPT_0x1E:
000c9d e0e0      	LDI  R30,LOW(0)
000c9e e0f0      	LDI  R31,HIGH(0)
000c9f 93fa      	ST   -Y,R31
000ca0 93ea      	ST   -Y,R30
000ca1 9508      	RET
                 
                 ;OPTIMIZER ADDED SUBROUTINE, CALLED 5 TIMES, CODE SIZE REDUCTION:13 WORDS
                 SUBOPT_0x1F:
000ca2 e0a1      	LDI  R26,LOW(1)
000ca3 e0b0      	LDI  R27,0
000ca4 940e 04e5 	CALL _drawPixel
000ca6 cff1      	RJMP SUBOPT_0x1D
                 
                 ;OPTIMIZER ADDED SUBROUTINE, CALLED 3 TIMES, CODE SIZE REDUCTION:1 WORDS
                 SUBOPT_0x20:
000ca7 e0ef      	LDI  R30,LOW(15)
000ca8 e0f0      	LDI  R31,HIGH(15)
000ca9 93fa      	ST   -Y,R31
000caa 93ea      	ST   -Y,R30
000cab 9508      	RET
                 
                 ;OPTIMIZER ADDED SUBROUTINE, CALLED 7 TIMES, CODE SIZE REDUCTION:9 WORDS
                 SUBOPT_0x21:
000cac e1ee      	LDI  R30,LOW(30)
000cad e0f0      	LDI  R31,HIGH(30)
000cae 93fa      	ST   -Y,R31
000caf 93ea      	ST   -Y,R30
000cb0 9508      	RET
                 
                 ;OPTIMIZER ADDED SUBROUTINE, CALLED 7 TIMES, CODE SIZE REDUCTION:9 WORDS
                 SUBOPT_0x22:
000cb1 e2e2      	LDI  R30,LOW(34)
000cb2 e0f0      	LDI  R31,HIGH(34)
000cb3 93fa      	ST   -Y,R31
000cb4 93ea      	ST   -Y,R30
000cb5 9508      	RET
                 
                 ;OPTIMIZER ADDED SUBROUTINE, CALLED 3 TIMES, CODE SIZE REDUCTION:1 WORDS
                 SUBOPT_0x23:
000cb6 e3e1      	LDI  R30,LOW(49)
000cb7 e0f0      	LDI  R31,HIGH(49)
000cb8 93fa      	ST   -Y,R31
000cb9 93ea      	ST   -Y,R30
000cba 9508      	RET
                 
                 ;OPTIMIZER ADDED SUBROUTINE, CALLED 4 TIMES, CODE SIZE REDUCTION:21 WORDS
                 SUBOPT_0x24:
000cbb e0a1      	LDI  R26,LOW(1)
000cbc e0b0      	LDI  R27,0
000cbd 940e 04e5 	CALL _drawPixel
                +
000cbf 2deb     +MOV R30 , R11
000cc0 2dfc     +MOV R31 , R12
                 	__GETW1R 11,12
000cc1 5ce0      	SUBI R30,LOW(-64)
000cc2 4fff      	SBCI R31,HIGH(-64)
000cc3 93fa      	ST   -Y,R31
000cc4 93ea      	ST   -Y,R30
000cc5 9508      	RET
                 
                 ;OPTIMIZER ADDED SUBROUTINE, CALLED 2 TIMES, CODE SIZE REDUCTION:7 WORDS
                 SUBOPT_0x25:
000cc6 e0a1      	LDI  R26,LOW(1)
000cc7 e0b0      	LDI  R27,0
000cc8 940e 04e5 	CALL _drawPixel
                +
000cca 2deb     +MOV R30 , R11
000ccb 2dfc     +MOV R31 , R12
                 	__GETW1R 11,12
000ccc 5ce0      	SUBI R30,LOW(-64)
000ccd 4fff      	SBCI R31,HIGH(-64)
000cce 0deb      	ADD  R30,R11
000ccf 1dfc      	ADC  R31,R12
000cd0 93fa      	ST   -Y,R31
000cd1 93ea      	ST   -Y,R30
000cd2 9508      	RET
                 
                 ;OPTIMIZER ADDED SUBROUTINE, CALLED 2 TIMES, CODE SIZE REDUCTION:9 WORDS
                 SUBOPT_0x26:
000cd3 e0a1      	LDI  R26,LOW(1)
000cd4 e0b0      	LDI  R27,0
000cd5 940e 04e5 	CALL _drawPixel
                +
000cd7 2deb     +MOV R30 , R11
000cd8 2dfc     +MOV R31 , R12
                 	__GETW1R 11,12
000cd9 5ce0      	SUBI R30,LOW(-64)
000cda 4fff      	SBCI R31,HIGH(-64)
000cdb 0deb      	ADD  R30,R11
000cdc 1dfc      	ADC  R31,R12
000cdd 0deb      	ADD  R30,R11
000cde 1dfc      	ADC  R31,R12
000cdf 93fa      	ST   -Y,R31
000ce0 93ea      	ST   -Y,R30
000ce1 9508      	RET
                 
                 ;OPTIMIZER ADDED SUBROUTINE, CALLED 4 TIMES, CODE SIZE REDUCTION:21 WORDS
                 SUBOPT_0x27:
000ce2 e0a1      	LDI  R26,LOW(1)
000ce3 e0b0      	LDI  R27,0
000ce4 940e 04e5 	CALL _drawPixel
000ce6 e4e0      	LDI  R30,LOW(64)
000ce7 e0f0      	LDI  R31,HIGH(64)
000ce8 19eb      	SUB  R30,R11
000ce9 09fc      	SBC  R31,R12
000cea 93fa      	ST   -Y,R31
000ceb 93ea      	ST   -Y,R30
000cec 9508      	RET
                 
                 ;OPTIMIZER ADDED SUBROUTINE, CALLED 2 TIMES, CODE SIZE REDUCTION:7 WORDS
                 SUBOPT_0x28:
000ced e0a1      	LDI  R26,LOW(1)
000cee e0b0      	LDI  R27,0
000cef 940e 04e5 	CALL _drawPixel
000cf1 e4e0      	LDI  R30,LOW(64)
000cf2 e0f0      	LDI  R31,HIGH(64)
000cf3 19eb      	SUB  R30,R11
000cf4 09fc      	SBC  R31,R12
000cf5 19eb      	SUB  R30,R11
000cf6 09fc      	SBC  R31,R12
000cf7 93fa      	ST   -Y,R31
000cf8 93ea      	ST   -Y,R30
000cf9 9508      	RET
                 
                 ;OPTIMIZER ADDED SUBROUTINE, CALLED 2 TIMES, CODE SIZE REDUCTION:9 WORDS
                 SUBOPT_0x29:
000cfa e0a1      	LDI  R26,LOW(1)
000cfb e0b0      	LDI  R27,0
000cfc 940e 04e5 	CALL _drawPixel
000cfe e4e0      	LDI  R30,LOW(64)
000cff e0f0      	LDI  R31,HIGH(64)
000d00 19eb      	SUB  R30,R11
000d01 09fc      	SBC  R31,R12
000d02 19eb      	SUB  R30,R11
000d03 09fc      	SBC  R31,R12
000d04 19eb      	SUB  R30,R11
000d05 09fc      	SBC  R31,R12
000d06 93fa      	ST   -Y,R31
000d07 93ea      	ST   -Y,R30
000d08 9508      	RET
                 
                 ;OPTIMIZER ADDED SUBROUTINE, CALLED 2 TIMES, CODE SIZE REDUCTION:1 WORDS
                 SUBOPT_0x2A:
000d09 93fa      	ST   -Y,R31
000d0a 93ea      	ST   -Y,R30
000d0b e0a2      	LDI  R26,LOW(2)
000d0c e0b0      	LDI  R27,0
000d0d 940c 0555 	JMP  _drawString
                 
                 ;OPTIMIZER ADDED SUBROUTINE, CALLED 11 TIMES, CODE SIZE REDUCTION:17 WORDS
                 SUBOPT_0x2B:
000d0f 93fa      	ST   -Y,R31
000d10 93ea      	ST   -Y,R30
000d11 cf8b      	RJMP SUBOPT_0x1E
                 
                 ;OPTIMIZER ADDED SUBROUTINE, CALLED 2 TIMES, CODE SIZE REDUCTION:9 WORDS
                 SUBOPT_0x2C:
000d12 dea0      	RCALL SUBOPT_0x9
000d13 e2e2      	LDI  R30,LOW(34)
000d14 e0f0      	LDI  R31,HIGH(34)
000d15 940e 0d4e 	CALL __GTW12
000d17 2e0e      	MOV  R0,R30
000d18 de9a      	RCALL SUBOPT_0x9
000d19 e1ee      	LDI  R30,LOW(30)
000d1a e0f0      	LDI  R31,HIGH(30)
000d1b 940e 0d48 	CALL __LTW12
000d1d 29e0      	OR   R30,R0
000d1e 9508      	RET
                 
                 ;OPTIMIZER ADDED SUBROUTINE, CALLED 2 TIMES, CODE SIZE REDUCTION:1 WORDS
                 SUBOPT_0x2D:
000d1f 940e 0d74 	CALL __DIVW21
                +
000d21 2ede     +MOV R13 , R30
000d22 2eef     +MOV R14 , R31
                 	__PUTW1R 13,14
000d23 cf59      	RJMP SUBOPT_0x1A
                 
                 
                 	.CSEG
                 _delay_ms:
000d24 9610      	adiw r26,0
000d25 f039      	breq __delay_ms1
                 __delay_ms0:
                +
000d26 ed80     +LDI R24 , LOW ( 0x7D0 )
000d27 e097     +LDI R25 , HIGH ( 0x7D0 )
                +__DELAY_USW_LOOP :
000d28 9701     +SBIW R24 , 1
000d29 f7f1     +BRNE __DELAY_USW_LOOP
                 	__DELAY_USW 0x7D0
000d2a 95a8      	wdr
000d2b 9711      	sbiw r26,1
000d2c f7c9      	brne __delay_ms0
                 __delay_ms1:
000d2d 9508      	ret
                 
                 __ANEGW1:
000d2e 95f1      	NEG  R31
000d2f 95e1      	NEG  R30
000d30 40f0      	SBCI R31,0
000d31 9508      	RET
                 
                 __LSLB12:
000d32 23ee      	TST  R30
000d33 2e0e      	MOV  R0,R30
000d34 2fea      	MOV  R30,R26
000d35 f019      	BREQ __LSLB12R
                 __LSLB12L:
000d36 0fee      	LSL  R30
000d37 940a      	DEC  R0
000d38 f7e9      	BRNE __LSLB12L
                 __LSLB12R:
000d39 9508      	RET
                 
                 __LSLW4:
000d3a 0fee      	LSL  R30
000d3b 1fff      	ROL  R31
                 __LSLW3:
000d3c 0fee      	LSL  R30
000d3d 1fff      	ROL  R31
                 __LSLW2:
000d3e 0fee      	LSL  R30
000d3f 1fff      	ROL  R31
000d40 0fee      	LSL  R30
000d41 1fff      	ROL  R31
000d42 9508      	RET
                 
                 __EQB12:
000d43 17ea      	CP   R30,R26
000d44 e0e1      	LDI  R30,1
000d45 f009      	BREQ __EQB12T
000d46 27ee      	CLR  R30
                 __EQB12T:
000d47 9508      	RET
                 
                 __LTW12:
000d48 17ae      	CP   R26,R30
000d49 07bf      	CPC  R27,R31
000d4a e0e1      	LDI  R30,1
000d4b f00c      	BRLT __LTW12T
000d4c 27ee      	CLR  R30
                 __LTW12T:
000d4d 9508      	RET
                 
                 __GTW12:
000d4e 17ea      	CP   R30,R26
000d4f 07fb      	CPC  R31,R27
000d50 e0e1      	LDI  R30,1
000d51 f00c      	BRLT __GTW12T
000d52 27ee      	CLR  R30
                 __GTW12T:
000d53 9508      	RET
                 
                 __MULW12U:
000d54 9ffa      	MUL  R31,R26
000d55 2df0      	MOV  R31,R0
000d56 9feb      	MUL  R30,R27
000d57 0df0      	ADD  R31,R0
000d58 9fea      	MUL  R30,R26
000d59 2de0      	MOV  R30,R0
000d5a 0df1      	ADD  R31,R1
000d5b 9508      	RET
                 
                 __MULW12:
000d5c d01c      	RCALL __CHKSIGNW
000d5d dff6      	RCALL __MULW12U
000d5e f40e      	BRTC __MULW121
000d5f dfce      	RCALL __ANEGW1
                 __MULW121:
000d60 9508      	RET
                 
                 __DIVW21U:
000d61 2400      	CLR  R0
000d62 2411      	CLR  R1
000d63 e190      	LDI  R25,16
                 __DIVW21U1:
000d64 0faa      	LSL  R26
000d65 1fbb      	ROL  R27
000d66 1c00      	ROL  R0
000d67 1c11      	ROL  R1
000d68 1a0e      	SUB  R0,R30
000d69 0a1f      	SBC  R1,R31
000d6a f418      	BRCC __DIVW21U2
000d6b 0e0e      	ADD  R0,R30
000d6c 1e1f      	ADC  R1,R31
000d6d c001      	RJMP __DIVW21U3
                 __DIVW21U2:
000d6e 60a1      	SBR  R26,1
                 __DIVW21U3:
000d6f 959a      	DEC  R25
000d70 f799      	BRNE __DIVW21U1
000d71 01fd      	MOVW R30,R26
000d72 01d0      	MOVW R26,R0
000d73 9508      	RET
                 
                 __DIVW21:
000d74 d004      	RCALL __CHKSIGNW
000d75 dfeb      	RCALL __DIVW21U
000d76 f40e      	BRTC __DIVW211
000d77 dfb6      	RCALL __ANEGW1
                 __DIVW211:
000d78 9508      	RET
                 
                 __CHKSIGNW:
000d79 94e8      	CLT
000d7a fff7      	SBRS R31,7
000d7b c002      	RJMP __CHKSW1
000d7c dfb1      	RCALL __ANEGW1
000d7d 9468      	SET
                 __CHKSW1:
000d7e ffb7      	SBRS R27,7
000d7f c006      	RJMP __CHKSW2
000d80 95a0      	COM  R26
000d81 95b0      	COM  R27
000d82 9611      	ADIW R26,1
000d83 f800      	BLD  R0,0
000d84 9403      	INC  R0
000d85 fa00      	BST  R0,0
                 __CHKSW2:
000d86 9508      	RET
                 
                 __GETD1S0:
000d87 81e8      	LD   R30,Y
000d88 81f9      	LDD  R31,Y+1
000d89 816a      	LDD  R22,Y+2
000d8a 817b      	LDD  R23,Y+3
000d8b 9508      	RET
                 
                 __PUTD1S0:
000d8c 83e8      	ST   Y,R30
000d8d 83f9      	STD  Y+1,R31
000d8e 836a      	STD  Y+2,R22
000d8f 837b      	STD  Y+3,R23
000d90 9508      	RET
                 
                 __CPW02:
000d91 2400      	CLR  R0
000d92 160a      	CP   R0,R26
000d93 060b      	CPC  R0,R27
000d94 9508      	RET
                 
                 __SAVELOCR6:
000d95 935a      	ST   -Y,R21
                 __SAVELOCR5:
000d96 934a      	ST   -Y,R20
                 __SAVELOCR4:
000d97 933a      	ST   -Y,R19
                 __SAVELOCR3:
000d98 932a      	ST   -Y,R18
                 __SAVELOCR2:
000d99 931a      	ST   -Y,R17
000d9a 930a      	ST   -Y,R16
000d9b 9508      	RET
                 
                 __LOADLOCR6:
000d9c 815d      	LDD  R21,Y+5
                 __LOADLOCR5:
000d9d 814c      	LDD  R20,Y+4
                 __LOADLOCR4:
000d9e 813b      	LDD  R19,Y+3
                 __LOADLOCR3:
000d9f 812a      	LDD  R18,Y+2
                 __LOADLOCR2:
000da0 8119      	LDD  R17,Y+1
000da1 8108      	LD   R16,Y
000da2 9508      	RET
                 
                 ;END OF CODE MARKER
                 __END_OF_CODE:


RESOURCE USE INFORMATION
------------------------

Notice:
The register and instruction counts are symbol table hit counts,
and hence implicitly used resources are not counted, eg, the
'lpm' instruction without operands implicitly uses r0 and z,
none of which are counted.

x,y,z are separate entities in the symbol table and are
counted separately from r26..r31 here.

.dseg memory usage only counts static data declared with .byte

ATmega328P register use summary:
r0 :  44 r1 :  12 r2 :   0 r3 :   4 r4 :   4 r5 :  26 r6 :  19 r7 :   4 
r8 :   4 r9 :   6 r10:   6 r11:  13 r12:  13 r13:  32 r14:  29 r15:   2 
r16:  33 r17:  35 r18:  24 r19:   9 r20:  10 r21:   4 r22:  12 r23:   6 
r24:  15 r25:   8 r26: 174 r27:  90 r28:  11 r29:   1 r30: 688 r31: 278 
x  :  13 y  : 255 z  :  10 
Registers used: 34 out of 35 (97.1%)

ATmega328P instruction use summary:
.lds  :   0 .lds.l:   0 .sts  :   0 .sts.l:   0 adc   :  20 add   :  22 
adiw  :  12 and   :   1 andi  :  20 asr   :   0 bclr  :   0 bld   :   1 
brbc  :   0 brbs  :   0 brcc  :   1 brcs  :   0 break :   0 breq  :  22 
brge  :  29 brhc  :   0 brhs  :   0 brid  :   0 brie  :   0 brlo  :   3 
brlt  :  12 brmi  :   2 brne  :  40 brpl  :   4 brsh  :   5 brtc  :   2 
brts  :   0 brvc  :   0 brvs  :   0 bset  :   0 bst   :   1 call  : 192 
cbi   :   5 cbr   :   1 clc   :   0 clh   :   0 cli   :   2 cln   :   0 
clr   :  21 cls   :   0 clt   :   1 clv   :   0 clz   :   0 com   :   3 
cp    :  30 cpc   :  32 cpi   :  44 cpse  :   0 dec   :   4 des   :   0 
eor   :   1 fmul  :   0 fmuls :   0 fmulsu:   0 icall :   4 ijmp  :   0 
in    :   4 inc   :   1 jmp   :  30 ld    :  23 ldd   : 102 ldi   : 329 
lds   :  91 lpm   :   9 lsl   :  13 lsr   :   0 mov   :  82 movw  :  29 
mul   :   4 muls  :   0 mulsu :   0 neg   :   2 nop   :   0 or    :   4 
ori   :  21 out   :  31 pop   :   0 push  :   0 rcall :  38 ret   :  66 
reti  :   1 rjmp  :  84 rol   :   7 ror   :   0 sbc   :  19 sbci  :  16 
sbi   :   9 sbic  :   1 sbis  :   4 sbiw  :  25 sbr   :   3 sbrc  :   0 
sbrs  :   2 sec   :   0 seh   :   0 sei   :   3 sen   :   0 ser   :   0 
ses   :   0 set   :   1 sev   :   0 sez   :   0 sleep :   1 spm   :   0 
st    : 116 std   :  29 sts   : 126 sub   :  19 subi  :  27 swap  :   0 
tst   :   7 wdr   :   1 
Instructions used: 69 out of 116 (59.5%)

ATmega328P memory use summary [bytes]:
Segment   Begin    End      Code   Data   Used    Size   Use%
---------------------------------------------------------------
[.cseg] 0x000000 0x001b46   4710   2272   6982   32768  21.3%
[.dseg] 0x000100 0x0007d5      0   1237   1237    2048  60.4%
[.eseg] 0x000000 0x000000      0      0      0    1024   0.0%

Assembly complete, 0 errors, 15 warnings
